// Auto-generated stubs
// D:368 F:655 V:35

.intel_syntax noprefix

.section .bss, "aw", @nobits
.balign 8

// AIAUDMGRPTR
.globl AIAUDMGRPTR
.weak AIAUDMGRPTR
.type AIAUDMGRPTR, @object
.size AIAUDMGRPTR, 8
AIAUDMGRPTR:
.zero 8

// AIMAP
.globl AIMAP
.weak AIMAP
.type AIMAP, @object
.size AIMAP, 8
AIMAP:
.zero 8

// AUDMGRPTR
.globl AUDMGRPTR
.weak AUDMGRPTR
.type AUDMGRPTR, @object
.size AUDMGRPTR, 8
AUDMGRPTR:
.zero 8

// AnnotateTextures
.globl AnnotateTextures
.weak AnnotateTextures
.type AnnotateTextures, @object
.size AnnotateTextures, 8
AnnotateTextures:
.zero 8

// BangerProjectile
.globl BangerProjectile
.weak BangerProjectile
.type BangerProjectile, @object
.size BangerProjectile, 8
BangerProjectile:
.zero 8

// BenchOSample
.globl BenchOSample
.weak BenchOSample
.type BenchOSample, @object
.size BenchOSample, 8
BenchOSample:
.zero 8

// BigPolySet
.globl BigPolySet
.weak BigPolySet
.type BigPolySet, @object
.size BigPolySet, 8
BigPolySet:
.zero 8

// BoneScale
.globl BoneScale
.weak BoneScale
.type BoneScale, @object
.size BoneScale, 8
BoneScale:
.zero 8

// BoundBytesPaged
.globl BoundBytesPaged
.weak BoundBytesPaged
.type BoundBytesPaged, @object
.size BoundBytesPaged, 8
BoundBytesPaged:
.zero 8

// BoundsPaged
.globl BoundsPaged
.weak BoundsPaged
.type BoundsPaged, @object
.size BoundsPaged, 8
BoundsPaged:
.zero 8

// CHEATING
.globl CHEATING
.weak CHEATING
.type CHEATING, @object
.size CHEATING, 8
CHEATING:
.zero 8

// CHICAGO
.globl CHICAGO
.weak CHICAGO
.type CHICAGO, @object
.size CHICAGO, 8
CHICAGO:
.zero 8

// CityListPtr
.globl CityListPtr
.weak CityListPtr
.type CityListPtr, @object
.size CityListPtr, 8
CityListPtr:
.zero 8

// ColBlue
.globl ColBlue
.weak ColBlue
.type ColBlue, @object
.size ColBlue, 8
ColBlue:
.zero 8

// ColGreen
.globl ColGreen
.weak ColGreen
.type ColGreen, @object
.size ColGreen, 8
ColGreen:
.zero 8

// ColLightCyan
.globl ColLightCyan
.weak ColLightCyan
.type ColLightCyan, @object
.size ColLightCyan, 8
ColLightCyan:
.zero 8

// ColOrange
.globl ColOrange
.weak ColOrange
.type ColOrange, @object
.size ColOrange, 8
ColOrange:
.zero 8

// ColPurple
.globl ColPurple
.weak ColPurple
.type ColPurple, @object
.size ColPurple, 8
ColPurple:
.zero 8

// ColRed
.globl ColRed
.weak ColRed
.type ColRed, @object
.size ColRed, 8
ColRed:
.zero 8

// ColYellow
.globl ColYellow
.weak ColYellow
.type ColYellow, @object
.size ColYellow, 8
ColYellow:
.zero 8

// ColorModelABGR
.globl ColorModelABGR
.weak ColorModelABGR
.type ColorModelABGR, @object
.size ColorModelABGR, 8
ColorModelABGR:
.zero 8

// ColorModelARGB
.globl ColorModelARGB
.weak ColorModelARGB
.type ColorModelARGB, @object
.size ColorModelARGB, 8
ColorModelARGB:
.zero 8

// ColorModelRGB555
.globl ColorModelRGB555
.weak ColorModelRGB555
.type ColorModelRGB555, @object
.size ColorModelRGB555, 8
ColorModelRGB555:
.zero 8

// ColorModelRGB555_Rev
.globl ColorModelRGB555_Rev
.weak ColorModelRGB555_Rev
.type ColorModelRGB555_Rev, @object
.size ColorModelRGB555_Rev, 8
ColorModelRGB555_Rev:
.zero 8

// ColorModelRGB565
.globl ColorModelRGB565
.weak ColorModelRGB565
.type ColorModelRGB565, @object
.size ColorModelRGB565, 8
ColorModelRGB565:
.zero 8

// ColorModelRGB565_Rev
.globl ColorModelRGB565_Rev
.weak ColorModelRGB565_Rev
.type ColorModelRGB565_Rev, @object
.size ColorModelRGB565_Rev, 8
ColorModelRGB565_Rev:
.zero 8

// ColorModelRGB888
.globl ColorModelRGB888
.weak ColorModelRGB888
.type ColorModelRGB888, @object
.size ColorModelRGB888, 8
ColorModelRGB888:
.zero 8

// ColorModelRGB888_Rev
.globl ColorModelRGB888_Rev
.weak ColorModelRGB888_Rev
.type ColorModelRGB888_Rev, @object
.size ColorModelRGB888_Rev, 8
ColorModelRGB888_Rev:
.zero 8

// ColorModelRGBA4444
.globl ColorModelRGBA4444
.weak ColorModelRGBA4444
.type ColorModelRGBA4444, @object
.size ColorModelRGBA4444, 8
ColorModelRGBA4444:
.zero 8

// ColorModelRGBA5551
.globl ColorModelRGBA5551
.weak ColorModelRGBA5551
.type ColorModelRGBA5551, @object
.size ColorModelRGBA5551, 8
ColorModelRGBA5551:
.zero 8

// ColoredPolySet
.globl ColoredPolySet
.weak ColoredPolySet
.type ColoredPolySet, @object
.size ColoredPolySet, 8
ColoredPolySet:
.zero 8

// CurrentMeshCard
.globl CurrentMeshCard
.weak CurrentMeshCard
.type CurrentMeshCard, @object
.size CurrentMeshCard, 8
CurrentMeshCard:
.zero 8

// CurrentMeshSetVariant
.globl CurrentMeshSetVariant
.weak CurrentMeshSetVariant
.type CurrentMeshSetVariant, @object
.size CurrentMeshSetVariant, 8
CurrentMeshSetVariant:
.zero 8

// DLPTemplateHash
.globl DLPTemplateHash
.weak DLPTemplateHash
.type DLPTemplateHash, @object
.size DLPTemplateHash, 8
DLPTemplateHash:
.zero 8

// DSGlobalPtr
.globl DSGlobalPtr
.weak DSGlobalPtr
.type DSGlobalPtr, @object
.size DSGlobalPtr, 8
DSGlobalPtr:
.zero 8

// DashAlphaRef
.globl DashAlphaRef
.weak DashAlphaRef
.type DashAlphaRef, @object
.size DashAlphaRef, 8
DashAlphaRef:
.zero 8

// DashColorScale
.globl DashColorScale
.weak DashColorScale
.type DashColorScale, @object
.size DashColorScale, 8
DashColorScale:
.zero 8

// DebugMemory
.globl DebugMemory
.weak DebugMemory
.type DebugMemory, @object
.size DebugMemory, 8
DebugMemory:
.zero 8

// DepthOffset
.globl DepthOffset
.weak DepthOffset
.type DepthOffset, @object
.size DepthOffset, 8
DepthOffset:
.zero 8

// DepthScale
.globl DepthScale
.weak DepthScale
.type DepthScale, @object
.size DepthScale, 8
DepthScale:
.zero 8

// DontClearPositions
.globl DontClearPositions
.weak DontClearPositions
.type DontClearPositions, @object
.size DontClearPositions, 8
DontClearPositions:
.zero 8

// DynTexFlag
.globl DynTexFlag
.weak DynTexFlag
.type DynTexFlag, @object
.size DynTexFlag, 8
DynTexFlag:
.zero 8

// DynaDrawMode
.globl DynaDrawMode
.weak DynaDrawMode
.type DynaDrawMode, @object
.size DynaDrawMode, 8
DynaDrawMode:
.zero 8

// EggFriction
.globl EggFriction
.weak EggFriction
.type EggFriction, @object
.size EggFriction, 8
EggFriction:
.zero 8

// EnableCachedPoly
.globl EnableCachedPoly
.weak EnableCachedPoly
.type EnableCachedPoly, @object
.size EnableCachedPoly, 8
EnableCachedPoly:
.zero 8

// EnableTexSorting
.globl EnableTexSorting
.weak EnableTexSorting
.type EnableTexSorting, @object
.size EnableTexSorting, 8
EnableTexSorting:
.zero 8

// EnvMapFlushes
.globl EnvMapFlushes
.weak EnvMapFlushes
.type EnvMapFlushes, @object
.size EnvMapFlushes, 8
EnvMapFlushes:
.zero 8

// GameInputPtr
.globl GameInputPtr
.weak GameInputPtr
.type GameInputPtr, @object
.size GameInputPtr, 8
GameInputPtr:
.zero 8

// HitWaterTimer
.globl HitWaterTimer
.weak HitWaterTimer
.type HitWaterTimer, @object
.size HitWaterTimer, 8
HitWaterTimer:
.zero 8

// IODev
.globl IODev
.weak IODev
.type IODev, @object
.size IODev, 8
IODev:
.zero 8

// InputConfiguration
.globl InputConfiguration
.weak InputConfiguration
.type InputConfiguration, @object
.size InputConfiguration, 8
InputConfiguration:
.zero 8

// IsSnowing
.globl IsSnowing
.weak IsSnowing
.type IsSnowing, @object
.size IsSnowing, 8
IsSnowing:
.zero 8

// JoinViaZone
.globl JoinViaZone
.weak JoinViaZone
.type JoinViaZone, @object
.size JoinViaZone, 8
JoinViaZone:
.zero 8

// LastPolySet
.globl LastPolySet
.weak LastPolySet
.type LastPolySet, @object
.size LastPolySet, 8
LastPolySet:
.zero 8

// LocPlayerName
.globl LocPlayerName
.weak LocPlayerName
.type LocPlayerName, @object
.size LocPlayerName, 8
LocPlayerName:
.zero 8

// LocStrButton
.globl LocStrButton
.weak LocStrButton
.type LocStrButton, @object
.size LocStrButton, 8
LocStrButton:
.zero 8

// LocStrJoystick
.globl LocStrJoystick
.weak LocStrJoystick
.type LocStrJoystick, @object
.size LocStrJoystick, 8
LocStrJoystick:
.zero 8

// LocStrUndef
.globl LocStrUndef
.weak LocStrUndef
.type LocStrUndef, @object
.size LocStrUndef, 8
LocStrUndef:
.zero 8

// LogRandomCalls
.globl LogRandomCalls
.weak LogRandomCalls
.type LogRandomCalls, @object
.size LogRandomCalls, 8
LogRandomCalls:
.zero 8

// MMCURRPLAYER
.globl MMCURRPLAYER
.weak MMCURRPLAYER
.type MMCURRPLAYER, @object
.size MMCURRPLAYER, 8
MMCURRPLAYER:
.zero 8

// MMSTATE
.globl MMSTATE
.weak MMSTATE
.type MMSTATE, @object
.size MMSTATE, 8
MMSTATE:
.zero 8

// MM_LANG_STR_12
.globl MM_LANG_STR_12
.weak MM_LANG_STR_12
.type MM_LANG_STR_12, @object
.size MM_LANG_STR_12, 8
MM_LANG_STR_12:
.zero 8

// MM_LANG_STR_18
.globl MM_LANG_STR_18
.weak MM_LANG_STR_18
.type MM_LANG_STR_18, @object
.size MM_LANG_STR_18, 8
MM_LANG_STR_18:
.zero 8

// MM_LANG_STR_183
.globl MM_LANG_STR_183
.weak MM_LANG_STR_183
.type MM_LANG_STR_183, @object
.size MM_LANG_STR_183, 8
MM_LANG_STR_183:
.zero 8

// MM_LANG_STR_184
.globl MM_LANG_STR_184
.weak MM_LANG_STR_184
.type MM_LANG_STR_184, @object
.size MM_LANG_STR_184, 8
MM_LANG_STR_184:
.zero 8

// MM_LANG_STR_19
.globl MM_LANG_STR_19
.weak MM_LANG_STR_19
.type MM_LANG_STR_19, @object
.size MM_LANG_STR_19, 8
MM_LANG_STR_19:
.zero 8

// MM_LANG_STR_199
.globl MM_LANG_STR_199
.weak MM_LANG_STR_199
.type MM_LANG_STR_199, @object
.size MM_LANG_STR_199, 8
MM_LANG_STR_199:
.zero 8

// MM_LANG_STR_20
.globl MM_LANG_STR_20
.weak MM_LANG_STR_20
.type MM_LANG_STR_20, @object
.size MM_LANG_STR_20, 8
MM_LANG_STR_20:
.zero 8

// MM_LANG_STR_200
.globl MM_LANG_STR_200
.weak MM_LANG_STR_200
.type MM_LANG_STR_200, @object
.size MM_LANG_STR_200, 8
MM_LANG_STR_200:
.zero 8

// MM_LANG_STR_201
.globl MM_LANG_STR_201
.weak MM_LANG_STR_201
.type MM_LANG_STR_201, @object
.size MM_LANG_STR_201, 8
MM_LANG_STR_201:
.zero 8

// MM_LANG_STR_202
.globl MM_LANG_STR_202
.weak MM_LANG_STR_202
.type MM_LANG_STR_202, @object
.size MM_LANG_STR_202, 8
MM_LANG_STR_202:
.zero 8

// MM_LANG_STR_203
.globl MM_LANG_STR_203
.weak MM_LANG_STR_203
.type MM_LANG_STR_203, @object
.size MM_LANG_STR_203, 8
MM_LANG_STR_203:
.zero 8

// MM_LANG_STR_204
.globl MM_LANG_STR_204
.weak MM_LANG_STR_204
.type MM_LANG_STR_204, @object
.size MM_LANG_STR_204, 8
MM_LANG_STR_204:
.zero 8

// MM_LANG_STR_205
.globl MM_LANG_STR_205
.weak MM_LANG_STR_205
.type MM_LANG_STR_205, @object
.size MM_LANG_STR_205, 8
MM_LANG_STR_205:
.zero 8

// MM_LANG_STR_206
.globl MM_LANG_STR_206
.weak MM_LANG_STR_206
.type MM_LANG_STR_206, @object
.size MM_LANG_STR_206, 8
MM_LANG_STR_206:
.zero 8

// MM_LANG_STR_207
.globl MM_LANG_STR_207
.weak MM_LANG_STR_207
.type MM_LANG_STR_207, @object
.size MM_LANG_STR_207, 8
MM_LANG_STR_207:
.zero 8

// MM_LANG_STR_21
.globl MM_LANG_STR_21
.weak MM_LANG_STR_21
.type MM_LANG_STR_21, @object
.size MM_LANG_STR_21, 8
MM_LANG_STR_21:
.zero 8

// MM_LANG_STR_22
.globl MM_LANG_STR_22
.weak MM_LANG_STR_22
.type MM_LANG_STR_22, @object
.size MM_LANG_STR_22, 8
MM_LANG_STR_22:
.zero 8

// MM_LANG_STR_23
.globl MM_LANG_STR_23
.weak MM_LANG_STR_23
.type MM_LANG_STR_23, @object
.size MM_LANG_STR_23, 8
MM_LANG_STR_23:
.zero 8

// MM_LANG_STR_24
.globl MM_LANG_STR_24
.weak MM_LANG_STR_24
.type MM_LANG_STR_24, @object
.size MM_LANG_STR_24, 8
MM_LANG_STR_24:
.zero 8

// MM_LANG_STR_25
.globl MM_LANG_STR_25
.weak MM_LANG_STR_25
.type MM_LANG_STR_25, @object
.size MM_LANG_STR_25, 8
MM_LANG_STR_25:
.zero 8

// MM_LANG_STR_26
.globl MM_LANG_STR_26
.weak MM_LANG_STR_26
.type MM_LANG_STR_26, @object
.size MM_LANG_STR_26, 8
MM_LANG_STR_26:
.zero 8

// MM_LANG_STR_27
.globl MM_LANG_STR_27
.weak MM_LANG_STR_27
.type MM_LANG_STR_27, @object
.size MM_LANG_STR_27, 8
MM_LANG_STR_27:
.zero 8

// MM_LANG_STR_28
.globl MM_LANG_STR_28
.weak MM_LANG_STR_28
.type MM_LANG_STR_28, @object
.size MM_LANG_STR_28, 8
MM_LANG_STR_28:
.zero 8

// MM_LANG_STR_286
.globl MM_LANG_STR_286
.weak MM_LANG_STR_286
.type MM_LANG_STR_286, @object
.size MM_LANG_STR_286, 8
MM_LANG_STR_286:
.zero 8

// MM_LANG_STR_287
.globl MM_LANG_STR_287
.weak MM_LANG_STR_287
.type MM_LANG_STR_287, @object
.size MM_LANG_STR_287, 8
MM_LANG_STR_287:
.zero 8

// MM_LANG_STR_288
.globl MM_LANG_STR_288
.weak MM_LANG_STR_288
.type MM_LANG_STR_288, @object
.size MM_LANG_STR_288, 8
MM_LANG_STR_288:
.zero 8

// MM_LANG_STR_289
.globl MM_LANG_STR_289
.weak MM_LANG_STR_289
.type MM_LANG_STR_289, @object
.size MM_LANG_STR_289, 8
MM_LANG_STR_289:
.zero 8

// MM_LANG_STR_29
.globl MM_LANG_STR_29
.weak MM_LANG_STR_29
.type MM_LANG_STR_29, @object
.size MM_LANG_STR_29, 8
MM_LANG_STR_29:
.zero 8

// MM_LANG_STR_290
.globl MM_LANG_STR_290
.weak MM_LANG_STR_290
.type MM_LANG_STR_290, @object
.size MM_LANG_STR_290, 8
MM_LANG_STR_290:
.zero 8

// MM_LANG_STR_291
.globl MM_LANG_STR_291
.weak MM_LANG_STR_291
.type MM_LANG_STR_291, @object
.size MM_LANG_STR_291, 8
MM_LANG_STR_291:
.zero 8

// MM_LANG_STR_292
.globl MM_LANG_STR_292
.weak MM_LANG_STR_292
.type MM_LANG_STR_292, @object
.size MM_LANG_STR_292, 8
MM_LANG_STR_292:
.zero 8

// MM_LANG_STR_293
.globl MM_LANG_STR_293
.weak MM_LANG_STR_293
.type MM_LANG_STR_293, @object
.size MM_LANG_STR_293, 8
MM_LANG_STR_293:
.zero 8

// MM_LANG_STR_294
.globl MM_LANG_STR_294
.weak MM_LANG_STR_294
.type MM_LANG_STR_294, @object
.size MM_LANG_STR_294, 8
MM_LANG_STR_294:
.zero 8

// MM_LANG_STR_295
.globl MM_LANG_STR_295
.weak MM_LANG_STR_295
.type MM_LANG_STR_295, @object
.size MM_LANG_STR_295, 8
MM_LANG_STR_295:
.zero 8

// MM_LANG_STR_296
.globl MM_LANG_STR_296
.weak MM_LANG_STR_296
.type MM_LANG_STR_296, @object
.size MM_LANG_STR_296, 8
MM_LANG_STR_296:
.zero 8

// MM_LANG_STR_297
.globl MM_LANG_STR_297
.weak MM_LANG_STR_297
.type MM_LANG_STR_297, @object
.size MM_LANG_STR_297, 8
MM_LANG_STR_297:
.zero 8

// MM_LANG_STR_298
.globl MM_LANG_STR_298
.weak MM_LANG_STR_298
.type MM_LANG_STR_298, @object
.size MM_LANG_STR_298, 8
MM_LANG_STR_298:
.zero 8

// MM_LANG_STR_299
.globl MM_LANG_STR_299
.weak MM_LANG_STR_299
.type MM_LANG_STR_299, @object
.size MM_LANG_STR_299, 8
MM_LANG_STR_299:
.zero 8

// MM_LANG_STR_30
.globl MM_LANG_STR_30
.weak MM_LANG_STR_30
.type MM_LANG_STR_30, @object
.size MM_LANG_STR_30, 8
MM_LANG_STR_30:
.zero 8

// MM_LANG_STR_300
.globl MM_LANG_STR_300
.weak MM_LANG_STR_300
.type MM_LANG_STR_300, @object
.size MM_LANG_STR_300, 8
MM_LANG_STR_300:
.zero 8

// MM_LANG_STR_31
.globl MM_LANG_STR_31
.weak MM_LANG_STR_31
.type MM_LANG_STR_31, @object
.size MM_LANG_STR_31, 8
MM_LANG_STR_31:
.zero 8

// MM_LANG_STR_32
.globl MM_LANG_STR_32
.weak MM_LANG_STR_32
.type MM_LANG_STR_32, @object
.size MM_LANG_STR_32, 8
MM_LANG_STR_32:
.zero 8

// MM_LANG_STR_33
.globl MM_LANG_STR_33
.weak MM_LANG_STR_33
.type MM_LANG_STR_33, @object
.size MM_LANG_STR_33, 8
MM_LANG_STR_33:
.zero 8

// MM_LANG_STR_34
.globl MM_LANG_STR_34
.weak MM_LANG_STR_34
.type MM_LANG_STR_34, @object
.size MM_LANG_STR_34, 8
MM_LANG_STR_34:
.zero 8

// MM_LANG_STR_371
.globl MM_LANG_STR_371
.weak MM_LANG_STR_371
.type MM_LANG_STR_371, @object
.size MM_LANG_STR_371, 8
MM_LANG_STR_371:
.zero 8

// MM_LANG_STR_434
.globl MM_LANG_STR_434
.weak MM_LANG_STR_434
.type MM_LANG_STR_434, @object
.size MM_LANG_STR_434, 8
MM_LANG_STR_434:
.zero 8

// MM_LANG_STR_435
.globl MM_LANG_STR_435
.weak MM_LANG_STR_435
.type MM_LANG_STR_435, @object
.size MM_LANG_STR_435, 8
MM_LANG_STR_435:
.zero 8

// MM_LANG_STR_436
.globl MM_LANG_STR_436
.weak MM_LANG_STR_436
.type MM_LANG_STR_436, @object
.size MM_LANG_STR_436, 8
MM_LANG_STR_436:
.zero 8

// MM_LANG_STR_437
.globl MM_LANG_STR_437
.weak MM_LANG_STR_437
.type MM_LANG_STR_437, @object
.size MM_LANG_STR_437, 8
MM_LANG_STR_437:
.zero 8

// MM_LANG_STR_438
.globl MM_LANG_STR_438
.weak MM_LANG_STR_438
.type MM_LANG_STR_438, @object
.size MM_LANG_STR_438, 8
MM_LANG_STR_438:
.zero 8

// MM_LANG_STR_439
.globl MM_LANG_STR_439
.weak MM_LANG_STR_439
.type MM_LANG_STR_439, @object
.size MM_LANG_STR_439, 8
MM_LANG_STR_439:
.zero 8

// MM_LANG_STR_440
.globl MM_LANG_STR_440
.weak MM_LANG_STR_440
.type MM_LANG_STR_440, @object
.size MM_LANG_STR_440, 8
MM_LANG_STR_440:
.zero 8

// MM_LANG_STR_453
.globl MM_LANG_STR_453
.weak MM_LANG_STR_453
.type MM_LANG_STR_453, @object
.size MM_LANG_STR_453, 8
MM_LANG_STR_453:
.zero 8

// MM_LANG_STR_454
.globl MM_LANG_STR_454
.weak MM_LANG_STR_454
.type MM_LANG_STR_454, @object
.size MM_LANG_STR_454, 8
MM_LANG_STR_454:
.zero 8

// MM_LANG_STR_455
.globl MM_LANG_STR_455
.weak MM_LANG_STR_455
.type MM_LANG_STR_455, @object
.size MM_LANG_STR_455, 8
MM_LANG_STR_455:
.zero 8

// MM_LANG_STR_456
.globl MM_LANG_STR_456
.weak MM_LANG_STR_456
.type MM_LANG_STR_456, @object
.size MM_LANG_STR_456, 8
MM_LANG_STR_456:
.zero 8

// MM_LANG_STR_457
.globl MM_LANG_STR_457
.weak MM_LANG_STR_457
.type MM_LANG_STR_457, @object
.size MM_LANG_STR_457, 8
MM_LANG_STR_457:
.zero 8

// MM_LANG_STR_458
.globl MM_LANG_STR_458
.weak MM_LANG_STR_458
.type MM_LANG_STR_458, @object
.size MM_LANG_STR_458, 8
MM_LANG_STR_458:
.zero 8

// MM_LANG_STR_525
.globl MM_LANG_STR_525
.weak MM_LANG_STR_525
.type MM_LANG_STR_525, @object
.size MM_LANG_STR_525, 8
MM_LANG_STR_525:
.zero 8

// MM_LANG_STR_526
.globl MM_LANG_STR_526
.weak MM_LANG_STR_526
.type MM_LANG_STR_526, @object
.size MM_LANG_STR_526, 8
MM_LANG_STR_526:
.zero 8

// MakeTableStats
.globl MakeTableStats
.weak MakeTableStats
.type MakeTableStats, @object
.size MakeTableStats, 8
MakeTableStats:
.zero 8

// MaxCardSize
.globl MaxCardSize
.weak MaxCardSize
.type MaxCardSize, @object
.size MaxCardSize, 8
MaxCardSize:
.zero 8

// MeshBytesPaged
.globl MeshBytesPaged
.weak MeshBytesPaged
.type MeshBytesPaged, @object
.size MeshBytesPaged, 8
MeshBytesPaged:
.zero 8

// MeshCurrentObject
.globl MeshCurrentObject
.weak MeshCurrentObject
.type MeshCurrentObject, @object
.size MeshCurrentObject, 8
MeshCurrentObject:
.zero 8

// MeshesPaged
.globl MeshesPaged
.weak MeshesPaged
.type MeshesPaged, @object
.size MeshesPaged, 8
MeshesPaged:
.zero 8

// MinCardSize
.globl MinCardSize
.weak MinCardSize
.type MinCardSize, @object
.size MinCardSize, 8
MinCardSize:
.zero 8

// NETMGR
.globl NETMGR
.weak NETMGR
.type NETMGR, @object
.size NETMGR, 8
NETMGR:
.zero 8

// ORIGIN
.globl ORIGIN
.weak ORIGIN
.type ORIGIN, @object
.size ORIGIN, 8
ORIGIN:
.zero 8

// PGRAPH
.globl PGRAPH
.weak PGRAPH
.type PGRAPH, @object
.size PGRAPH, 8
PGRAPH:
.zero 8

// PROBER
.globl PROBER
.weak PROBER
.type PROBER, @object
.size PROBER, 8
PROBER:
.zero 8

// PackShift
.globl PackShift
.weak PackShift
.type PackShift, @object
.size PackShift, 8
PackShift:
.zero 8

// ParticleMultiplier
.globl ParticleMultiplier
.weak ParticleMultiplier
.type ParticleMultiplier, @object
.size ParticleMultiplier, 8
ParticleMultiplier:
.zero 8

// PixelFormat_A8R8G8B8
.globl PixelFormat_A8R8G8B8
.weak PixelFormat_A8R8G8B8
.type PixelFormat_A8R8G8B8, @object
.size PixelFormat_A8R8G8B8, 8
PixelFormat_A8R8G8B8:
.zero 8

// PixelFormat_B8G8R8
.globl PixelFormat_B8G8R8
.weak PixelFormat_B8G8R8
.type PixelFormat_B8G8R8, @object
.size PixelFormat_B8G8R8, 8
PixelFormat_B8G8R8:
.zero 8

// PixelFormat_P8
.globl PixelFormat_P8
.weak PixelFormat_P8
.type PixelFormat_P8, @object
.size PixelFormat_P8, 8
PixelFormat_P8:
.zero 8

// PixelFormat_R5G6B5
.globl PixelFormat_R5G6B5
.weak PixelFormat_R5G6B5
.type PixelFormat_R5G6B5, @object
.size PixelFormat_R5G6B5, 8
PixelFormat_R5G6B5:
.zero 8

// PixelFormat_X1R5G5B5
.globl PixelFormat_X1R5G5B5
.weak PixelFormat_X1R5G5B5
.type PixelFormat_X1R5G5B5, @object
.size PixelFormat_X1R5G5B5, 8
PixelFormat_X1R5G5B5:
.zero 8

// PixelFormat_X8R8G8B8
.globl PixelFormat_X8R8G8B8
.weak PixelFormat_X8R8G8B8
.type PixelFormat_X8R8G8B8, @object
.size PixelFormat_X8R8G8B8, 8
PixelFormat_X8R8G8B8:
.zero 8

// PlayerPos
.globl PlayerPos
.weak PlayerPos
.type PlayerPos, @object
.size PlayerPos, 8
PlayerPos:
.zero 8

// PopupCDFrame
.globl PopupCDFrame
.weak PopupCDFrame
.type PopupCDFrame, @object
.size PopupCDFrame, 8
PopupCDFrame:
.zero 8

// PopupCDMinute
.globl PopupCDMinute
.weak PopupCDMinute
.type PopupCDMinute, @object
.size PopupCDMinute, 8
PopupCDMinute:
.zero 8

// PopupCDSecond
.globl PopupCDSecond
.weak PopupCDSecond
.type PopupCDSecond, @object
.size PopupCDSecond, 8
PopupCDSecond:
.zero 8

// PopupCDTrack
.globl PopupCDTrack
.weak PopupCDTrack
.type PopupCDTrack, @object
.size PopupCDTrack, 8
PopupCDTrack:
.zero 8

// PopupEnabled
.globl PopupEnabled
.weak PopupEnabled
.type PopupEnabled, @object
.size PopupEnabled, 8
PopupEnabled:
.zero 8

// ProjectileV
.globl ProjectileV
.weak ProjectileV
.type ProjectileV, @object
.size ProjectileV, 8
ProjectileV:
.zero 8

// ProjectileY
.globl ProjectileY
.weak ProjectileY
.type ProjectileY, @object
.size ProjectileY, 8
ProjectileY:
.zero 8

// STATS
.globl STATS
.weak STATS
.type STATS, @object
.size STATS, 8
STATS:
.zero 8

// ScreenClearY
.globl ScreenClearY
.weak ScreenClearY
.type ScreenClearY, @object
.size ScreenClearY, 8
ScreenClearY:
.zero 8

// ShadowColor
.globl ShadowColor
.weak ShadowColor
.type ShadowColor, @object
.size ShadowColor, 8
ShadowColor:
.zero 8

// ShadowMatrix
.globl ShadowMatrix
.weak ShadowMatrix
.type ShadowMatrix, @object
.size ShadowMatrix, 8
ShadowMatrix:
.zero 8

// StaticLog
.globl StaticLog
.weak StaticLog
.type StaticLog, @object
.size StaticLog, 8
StaticLog:
.zero 8

// TEXSHEET
.globl TEXSHEET
.weak TEXSHEET
.type TEXSHEET, @object
.size TEXSHEET, 8
TEXSHEET:
.zero 8

// TexBytesPaged
.globl TexBytesPaged
.weak TexBytesPaged
.type TexBytesPaged, @object
.size TexBytesPaged, 8
TexBytesPaged:
.zero 8

// TexSearchPath
.globl TexSearchPath
.weak TexSearchPath
.type TexSearchPath, @object
.size TexSearchPath, 8
TexSearchPath:
.zero 8

// TexsPaged
.globl TexsPaged
.weak TexsPaged
.type TexsPaged, @object
.size TexsPaged, 8
TexsPaged:
.zero 8

// TextureSuffix
.globl TextureSuffix
.weak TextureSuffix
.type TextureSuffix, @object
.size TextureSuffix, 8
TextureSuffix:
.zero 8

// Update3D
.globl Update3D
.weak Update3D
.type Update3D, @object
.size Update3D, 8
Update3D:
.zero 8

// UseDIKey
.globl UseDIKey
.weak UseDIKey
.type UseDIKey, @object
.size UseDIKey, 8
UseDIKey:
.zero 8

// UsePixelFog
.globl UsePixelFog
.weak UsePixelFog
.type UsePixelFog, @object
.size UsePixelFog, 8
UsePixelFog:
.zero 8

// VehicleDataHash
.globl VehicleDataHash
.weak VehicleDataHash
.type VehicleDataHash, @object
.size VehicleDataHash, 8
VehicleDataHash:
.zero 8

// VehicleListPtr
.globl VehicleListPtr
.weak VehicleListPtr
.type VehicleListPtr, @object
.size VehicleListPtr, 8
VehicleListPtr:
.zero 8

// XAXIS
.globl XAXIS
.weak XAXIS
.type XAXIS, @object
.size XAXIS, 8
XAXIS:
.zero 8

// YAXIS
.globl YAXIS
.weak YAXIS
.type YAXIS, @object
.size YAXIS, 8
YAXIS:
.zero 8

// ZAXIS
.globl ZAXIS
.weak ZAXIS
.type ZAXIS, @object
.size ZAXIS, 8
ZAXIS:
.zero 8

// ZTrick
.globl ZTrick
.weak ZTrick
.type ZTrick, @object
.size ZTrick, 8
ZTrick:
.zero 8

// _GLOBAL_OFFSET_TABLE_
.globl _GLOBAL_OFFSET_TABLE_
.weak _GLOBAL_OFFSET_TABLE_
.type _GLOBAL_OFFSET_TABLE_, @object
.size _GLOBAL_OFFSET_TABLE_, 8
_GLOBAL_OFFSET_TABLE_:
.zero 8

// agiMeshSet::DefaultQuad
.globl _ZN10agiMeshSet11DefaultQuadE
.weak _ZN10agiMeshSet11DefaultQuadE
.type _ZN10agiMeshSet11DefaultQuadE, @object
.size _ZN10agiMeshSet11DefaultQuadE, 8
_ZN10agiMeshSet11DefaultQuadE:
.zero 8

// agiPolySet::TriCount
.globl _ZN10agiPolySet8TriCountE
.weak _ZN10agiPolySet8TriCountE
.type _ZN10agiPolySet8TriCountE, @object
.size _ZN10agiPolySet8TriCountE, 8
_ZN10agiPolySet8TriCountE:
.zero 8

// mmCullCity::Instance
.globl _ZN10mmCullCity8InstanceE
.weak _ZN10mmCullCity8InstanceE
.type _ZN10mmCullCity8InstanceE, @object
.size _ZN10mmCullCity8InstanceE, 8
_ZN10mmCullCity8InstanceE:
.zero 8

// mmInstance::DynamicLighter
.globl _ZN10mmInstance14DynamicLighterE
.weak _ZN10mmInstance14DynamicLighterE
.type _ZN10mmInstance14DynamicLighterE, @object
.size _ZN10mmInstance14DynamicLighterE, 8
_ZN10mmInstance14DynamicLighterE:
.zero 8

// MenuManager::Instance
.globl _ZN11MenuManager8InstanceE
.weak _ZN11MenuManager8InstanceE
.type _ZN11MenuManager8InstanceE, @object
.size _ZN11MenuManager8InstanceE, 8
_ZN11MenuManager8InstanceE:
.zero 8

// agiPipeline::CurrentPipe
.globl _ZN11agiPipeline11CurrentPipeE
.weak _ZN11agiPipeline11CurrentPipeE
.type _ZN11agiPipeline11CurrentPipeE, @object
.size _ZN11agiPipeline11CurrentPipeE, 8
_ZN11agiPipeline11CurrentPipeE:
.zero 8

// agiPipeline::CurrentRenderer
.globl _ZN11agiPipeline15CurrentRendererE
.weak _ZN11agiPipeline15CurrentRendererE
.type _ZN11agiPipeline15CurrentRendererE, @object
.size _ZN11agiPipeline15CurrentRendererE, 8
_ZN11agiPipeline15CurrentRendererE:
.zero 8

// agiViewport::Active
.globl _ZN11agiViewport6ActiveE
.weak _ZN11agiViewport6ActiveE
.type _ZN11agiViewport6ActiveE, @object
.size _ZN11agiViewport6ActiveE, 8
_ZN11agiViewport6ActiveE:
.zero 8

// mmBridgeMgr::Instance
.globl _ZN11mmBridgeMgr8InstanceE
.weak _ZN11mmBridgeMgr8InstanceE
.type _ZN11mmBridgeMgr8InstanceE, @object
.size _ZN11mmBridgeMgr8InstanceE, 8
_ZN11mmBridgeMgr8InstanceE:
.zero 8

// agiTexSorter::EnvPolySet
.globl _ZN12agiTexSorter10EnvPolySetE
.weak _ZN12agiTexSorter10EnvPolySetE
.type _ZN12agiTexSorter10EnvPolySetE, @object
.size _ZN12agiTexSorter10EnvPolySetE, 8
_ZN12agiTexSorter10EnvPolySetE:
.zero 8

// agiTexSorter::AlphaSetCount
.globl _ZN12agiTexSorter13AlphaSetCountE
.weak _ZN12agiTexSorter13AlphaSetCountE
.type _ZN12agiTexSorter13AlphaSetCountE, @object
.size _ZN12agiTexSorter13AlphaSetCountE, 8
_ZN12agiTexSorter13AlphaSetCountE:
.zero 8

// agiTexSorter::BigPoolFlushes
.globl _ZN12agiTexSorter14BigPoolFlushesE
.weak _ZN12agiTexSorter14BigPoolFlushesE
.type _ZN12agiTexSorter14BigPoolFlushesE, @object
.size _ZN12agiTexSorter14BigPoolFlushesE, 8
_ZN12agiTexSorter14BigPoolFlushesE:
.zero 8

// agiTexSorter::MaxVertsPerSet
.globl _ZN12agiTexSorter14MaxVertsPerSetE
.weak _ZN12agiTexSorter14MaxVertsPerSetE
.type _ZN12agiTexSorter14MaxVertsPerSetE, @object
.size _ZN12agiTexSorter14MaxVertsPerSetE, 8
_ZN12agiTexSorter14MaxVertsPerSetE:
.zero 8

// agiTexSorter::OpaqueSetCount
.globl _ZN12agiTexSorter14OpaqueSetCountE
.weak _ZN12agiTexSorter14OpaqueSetCountE
.type _ZN12agiTexSorter14OpaqueSetCountE, @object
.size _ZN12agiTexSorter14OpaqueSetCountE, 8
_ZN12agiTexSorter14OpaqueSetCountE:
.zero 8

// agiTexSorter::OverflowFlushes
.globl _ZN12agiTexSorter15OverflowFlushesE
.weak _ZN12agiTexSorter15OverflowFlushesE
.type _ZN12agiTexSorter15OverflowFlushesE, @object
.size _ZN12agiTexSorter15OverflowFlushesE, 8
_ZN12agiTexSorter15OverflowFlushesE:
.zero 8

// agiTexSorter::MaxAlphaSetCount
.globl _ZN12agiTexSorter16MaxAlphaSetCountE
.weak _ZN12agiTexSorter16MaxAlphaSetCountE
.type _ZN12agiTexSorter16MaxAlphaSetCountE, @object
.size _ZN12agiTexSorter16MaxAlphaSetCountE, 8
_ZN12agiTexSorter16MaxAlphaSetCountE:
.zero 8

// agiTexSorter::MaxIndicesPerSet
.globl _ZN12agiTexSorter16MaxIndicesPerSetE
.weak _ZN12agiTexSorter16MaxIndicesPerSetE
.type _ZN12agiTexSorter16MaxIndicesPerSetE, @object
.size _ZN12agiTexSorter16MaxIndicesPerSetE, 8
_ZN12agiTexSorter16MaxIndicesPerSetE:
.zero 8

// agiTexSorter::OutOfPoolFlushes
.globl _ZN12agiTexSorter16OutOfPoolFlushesE
.weak _ZN12agiTexSorter16OutOfPoolFlushesE
.type _ZN12agiTexSorter16OutOfPoolFlushesE, @object
.size _ZN12agiTexSorter16OutOfPoolFlushesE, 8
_ZN12agiTexSorter16OutOfPoolFlushesE:
.zero 8

// agiTexSorter::MaxOpaqueSetCount
.globl _ZN12agiTexSorter17MaxOpaqueSetCountE
.weak _ZN12agiTexSorter17MaxOpaqueSetCountE
.type _ZN12agiTexSorter17MaxOpaqueSetCountE, @object
.size _ZN12agiTexSorter17MaxOpaqueSetCountE, 8
_ZN12agiTexSorter17MaxOpaqueSetCountE:
.zero 8

// agiTexSorter::Instance
.globl _ZN12agiTexSorter8InstanceE
.weak _ZN12agiTexSorter8InstanceE
.type _ZN12agiTexSorter8InstanceE, @object
.size _ZN12agiTexSorter8InstanceE, 8
_ZN12agiTexSorter8InstanceE:
.zero 8

// mmPhysicsMGR::Instance
.globl _ZN12mmPhysicsMGR8InstanceE
.weak _ZN12mmPhysicsMGR8InstanceE
.type _ZN12mmPhysicsMGR8InstanceE, @object
.size _ZN12mmPhysicsMGR8InstanceE, 8
_ZN12mmPhysicsMGR8InstanceE:
.zero 8

// asMeshSetForm::Lighter
.globl _ZN13asMeshSetForm7LighterE
.weak _ZN13asMeshSetForm7LighterE
.type _ZN13asMeshSetForm7LighterE, @object
.size _ZN13asMeshSetForm7LighterE, 8
_ZN13asMeshSetForm7LighterE:
.zero 8

// asMeshSetForm::SphMapTex
.globl _ZN13asMeshSetForm9SphMapTexE
.weak _ZN13asMeshSetForm9SphMapTexE
.type _ZN13asMeshSetForm9SphMapTexE, @object
.size _ZN13asMeshSetForm9SphMapTexE, 8
_ZN13asMeshSetForm9SphMapTexE:
.zero 8

// mmGameManager::Instance
.globl _ZN13mmGameManager8InstanceE
.weak _ZN13mmGameManager8InstanceE
.type _ZN13mmGameManager8InstanceE, @object
.size _ZN13mmGameManager8InstanceE, 8
_ZN13mmGameManager8InstanceE:
.zero 8

// mmVehicleForm::SphMapTex
.globl _ZN13mmVehicleForm9SphMapTexE
.weak _ZN13mmVehicleForm9SphMapTexE
.type _ZN13mmVehicleForm9SphMapTexE, @object
.size _ZN13mmVehicleForm9SphMapTexE, 8
_ZN13mmVehicleForm9SphMapTexE:
.zero 8

// mmShardManager::NumInstances
.globl _ZN14mmShardManager12NumInstancesE
.weak _ZN14mmShardManager12NumInstancesE
.type _ZN14mmShardManager12NumInstancesE, @object
.size _ZN14mmShardManager12NumInstancesE, 8
_ZN14mmShardManager12NumInstancesE:
.zero 8

// agiSurfRenderer::VertexCount
.globl _ZN15agiSurfRenderer11VertexCountE
.weak _ZN15agiSurfRenderer11VertexCountE
.type _ZN15agiSurfRenderer11VertexCountE, @object
.size _ZN15agiSurfRenderer11VertexCountE, 8
_ZN15agiSurfRenderer11VertexCountE:
.zero 8

// agiSurfRenderer::SurfaceCount
.globl _ZN15agiSurfRenderer12SurfaceCountE
.weak _ZN15agiSurfRenderer12SurfaceCountE
.type _ZN15agiSurfRenderer12SurfaceCountE, @object
.size _ZN15agiSurfRenderer12SurfaceCountE, 8
_ZN15agiSurfRenderer12SurfaceCountE:
.zero 8

// mmAnimInstState::FrameDelta
.globl _ZN15mmAnimInstState10FrameDeltaE
.weak _ZN15mmAnimInstState10FrameDeltaE
.type _ZN15mmAnimInstState10FrameDeltaE, @object
.size _ZN15mmAnimInstState10FrameDeltaE, 8
_ZN15mmAnimInstState10FrameDeltaE:
.zero 8

// mmAnimInstState::FrameFraction
.globl _ZN15mmAnimInstState13FrameFractionE
.weak _ZN15mmAnimInstState13FrameFractionE
.type _ZN15mmAnimInstState13FrameFractionE, @object
.size _ZN15mmAnimInstState13FrameFractionE, 8
_ZN15mmAnimInstState13FrameFractionE:
.zero 8

// mmBangerManager::Instance
.globl _ZN15mmBangerManager8InstanceE
.weak _ZN15mmBangerManager8InstanceE
.type _ZN15mmBangerManager8InstanceE, @object
.size _ZN15mmBangerManager8InstanceE, 8
_ZN15mmBangerManager8InstanceE:
.zero 8

// mmBoundTemplate::VertPtr
.globl _ZN15mmBoundTemplate7VertPtrE
.weak _ZN15mmBoundTemplate7VertPtrE
.type _ZN15mmBoundTemplate7VertPtrE, @object
.size _ZN15mmBoundTemplate7VertPtrE, 8
_ZN15mmBoundTemplate7VertPtrE:
.zero 8

// agiViewParameters::ViewSerial
.globl _ZN17agiViewParameters10ViewSerialE
.weak _ZN17agiViewParameters10ViewSerialE
.type _ZN17agiViewParameters10ViewSerialE, @object
.size _ZN17agiViewParameters10ViewSerialE, 8
_ZN17agiViewParameters10ViewSerialE:
.zero 8

// agiViewParameters::MtxSerial
.globl _ZN17agiViewParameters9MtxSerialE
.weak _ZN17agiViewParameters9MtxSerialE
.type _ZN17agiViewParameters9MtxSerialE, @object
.size _ZN17agiViewParameters9MtxSerialE, 8
_ZN17agiViewParameters9MtxSerialE:
.zero 8

// mmBangerDataManager::Instance
.globl _ZN19mmBangerDataManager8InstanceE
.weak _ZN19mmBangerDataManager8InstanceE
.type _ZN19mmBangerDataManager8InstanceE, @object
.size _ZN19mmBangerDataManager8InstanceE, 8
_ZN19mmBangerDataManager8InstanceE:
.zero 8

// mmCar::UpdateTime
.globl _ZN5mmCar10UpdateTimeE
.weak _ZN5mmCar10UpdateTimeE
.type _ZN5mmCar10UpdateTimeE, @object
.size _ZN5mmCar10UpdateTimeE, 8
_ZN5mmCar10UpdateTimeE:
.zero 8

// mmCar::PostUpdateTime
.globl _ZN5mmCar14PostUpdateTimeE
.weak _ZN5mmCar14PostUpdateTimeE
.type _ZN5mmCar14PostUpdateTimeE, @object
.size _ZN5mmCar14PostUpdateTimeE, 8
_ZN5mmCar14PostUpdateTimeE:
.zero 8

// mmCar::TotalUpdateTime
.globl _ZN5mmCar15TotalUpdateTimeE
.weak _ZN5mmCar15TotalUpdateTimeE
.type _ZN5mmCar15TotalUpdateTimeE, @object
.size _ZN5mmCar15TotalUpdateTimeE, 8
_ZN5mmCar15TotalUpdateTimeE:
.zero 8

// UIMenu::UI_LEFT_MARGIN
.globl _ZN6UIMenu14UI_LEFT_MARGINE
.weak _ZN6UIMenu14UI_LEFT_MARGINE
.type _ZN6UIMenu14UI_LEFT_MARGINE, @object
.size _ZN6UIMenu14UI_LEFT_MARGINE, 8
_ZN6UIMenu14UI_LEFT_MARGINE:
.zero 8

// asNode::TimingCount
.globl _ZN6asNode11TimingCountE
.weak _ZN6asNode11TimingCountE
.type _ZN6asNode11TimingCountE, @object
.size _ZN6asNode11TimingCountE, 8
_ZN6asNode11TimingCountE:
.zero 8

// mmWheel::PtxMaxSkidCount
.globl _ZN7mmWheel15PtxMaxSkidCountE
.weak _ZN7mmWheel15PtxMaxSkidCountE
.type _ZN7mmWheel15PtxMaxSkidCountE, @object
.size _ZN7mmWheel15PtxMaxSkidCountE, 8
_ZN7mmWheel15PtxMaxSkidCountE:
.zero 8

// mmLoader::Current
.globl _ZN8mmLoader7CurrentE
.weak _ZN8mmLoader7CurrentE
.type _ZN8mmLoader7CurrentE, @object
.size _ZN8mmLoader7CurrentE, 8
_ZN8mmLoader7CurrentE:
.zero 8

// __dso_handle
.globl __dso_handle
.weak __dso_handle
.type __dso_handle, @object
.size __dso_handle, 8
__dso_handle:
.zero 8

// __tls_get_addr
.globl __tls_get_addr
.weak __tls_get_addr
.type __tls_get_addr, @object
.size __tls_get_addr, 8
__tls_get_addr:
.zero 8

// _fAmbientUpdate
.globl _fAmbientUpdate
.weak _fAmbientUpdate
.type _fAmbientUpdate, @object
.size _fAmbientUpdate, 8
_fAmbientUpdate:
.zero 8

// _fCopUpdate
.globl _fCopUpdate
.weak _fCopUpdate
.type _fCopUpdate, @object
.size _fCopUpdate, 8
_fCopUpdate:
.zero 8

// _fOppUpdate
.globl _fOppUpdate
.weak _fOppUpdate
.type _fOppUpdate, @object
.size _fOppUpdate, 8
_fOppUpdate:
.zero 8

// _fPedUpdate
.globl _fPedUpdate
.weak _fPedUpdate
.type _fPedUpdate, @object
.size _fPedUpdate, 8
_fPedUpdate:
.zero 8

// _fTotUpdate
.globl _fTotUpdate
.weak _fTotUpdate
.type _fTotUpdate, @object
.size _fTotUpdate, 8
_fTotUpdate:
.zero 8

// _nAmbientQty
.globl _nAmbientQty
.weak _nAmbientQty
.type _nAmbientQty, @object
.size _nAmbientQty, 8
_nAmbientQty:
.zero 8

// _nPedQty
.globl _nPedQty
.weak _nPedQty
.type _nPedQty, @object
.size _nPedQty, 8
_nPedQty:
.zero 8

// agiBeginFrame
.globl agiBeginFrame
.weak agiBeginFrame
.type agiBeginFrame, @object
.size agiBeginFrame, 8
agiBeginFrame:
.zero 8

// agiBeginScene
.globl agiBeginScene
.weak agiBeginScene
.type agiBeginScene, @object
.size agiBeginScene, 8
agiBeginScene:
.zero 8

// agiBitmapCount
.globl agiBitmapCount
.weak agiBitmapCount
.type agiBitmapCount, @object
.size agiBitmapCount, 8
agiBitmapCount:
.zero 8

// agiBitmapPixels
.globl agiBitmapPixels
.weak agiBitmapPixels
.type agiBitmapPixels, @object
.size agiBitmapPixels, 8
agiBitmapPixels:
.zero 8

// agiClearViewport
.globl agiClearViewport
.weak agiClearViewport
.type agiClearViewport, @object
.size agiClearViewport, 8
agiClearViewport:
.zero 8

// agiClipTimer
.globl agiClipTimer
.weak agiClipTimer
.type agiClipTimer, @object
.size agiClipTimer, 8
agiClipTimer:
.zero 8

// agiCopyBitmap
.globl agiCopyBitmap
.weak agiCopyBitmap
.type agiCopyBitmap, @object
.size agiCopyBitmap, 8
agiCopyBitmap:
.zero 8

// agiEnableZBuffer
.globl agiEnableZBuffer
.weak agiEnableZBuffer
.type agiEnableZBuffer, @object
.size agiEnableZBuffer, 8
agiEnableZBuffer:
.zero 8

// agiEndFrame
.globl agiEndFrame
.weak agiEndFrame
.type agiEndFrame, @object
.size agiEndFrame, 8
agiEndFrame:
.zero 8

// agiEndScene
.globl agiEndScene
.weak agiEndScene
.type agiEndScene, @object
.size agiEndScene, 8
agiEndScene:
.zero 8

// agiFirstPass
.globl agiFirstPass
.weak agiFirstPass
.type agiFirstPass, @object
.size agiFirstPass, 8
agiFirstPass:
.zero 8

// agiInvertTimer
.globl agiInvertTimer
.weak agiInvertTimer
.type agiInvertTimer, @object
.size agiInvertTimer, 8
agiInvertTimer:
.zero 8

// agiLightTimer
.globl agiLightTimer
.weak agiLightTimer
.type agiLightTimer, @object
.size agiLightTimer, 8
agiLightTimer:
.zero 8

// agiMeshLighterAmbient
.globl agiMeshLighterAmbient
.weak agiMeshLighterAmbient
.type agiMeshLighterAmbient, @object
.size agiMeshLighterAmbient, 8
agiMeshLighterAmbient:
.zero 8

// agiMeshLighterFill1
.globl agiMeshLighterFill1
.weak agiMeshLighterFill1
.type agiMeshLighterFill1, @object
.size agiMeshLighterFill1, 8
agiMeshLighterFill1:
.zero 8

// agiMeshLighterFill1Color
.globl agiMeshLighterFill1Color
.weak agiMeshLighterFill1Color
.type agiMeshLighterFill1Color, @object
.size agiMeshLighterFill1Color, 8
agiMeshLighterFill1Color:
.zero 8

// agiMeshLighterFill2
.globl agiMeshLighterFill2
.weak agiMeshLighterFill2
.type agiMeshLighterFill2, @object
.size agiMeshLighterFill2, 8
agiMeshLighterFill2:
.zero 8

// agiMeshLighterFill2Color
.globl agiMeshLighterFill2Color
.weak agiMeshLighterFill2Color
.type agiMeshLighterFill2Color, @object
.size agiMeshLighterFill2Color, 8
agiMeshLighterFill2Color:
.zero 8

// agiMeshLighterSun
.globl agiMeshLighterSun
.weak agiMeshLighterSun
.type agiMeshLighterSun, @object
.size agiMeshLighterSun, 8
agiMeshLighterSun:
.zero 8

// agiMeshLighterSunColor
.globl agiMeshLighterSunColor
.weak agiMeshLighterSunColor
.type agiMeshLighterSunColor, @object
.size agiMeshLighterSunColor, 8
agiMeshLighterSunColor:
.zero 8

// agiPal
.globl agiPal
.weak agiPal
.type agiPal, @object
.size agiPal, 8
agiPal:
.zero 8

// agiRQ
.globl agiRQ
.weak agiRQ
.type agiRQ, @object
.size agiRQ, 8
agiRQ:
.zero 8

// agiRasterization
.globl agiRasterization
.weak agiRasterization
.type agiRasterization, @object
.size agiRasterization, 8
agiRasterization:
.zero 8

// agiSecondPass
.globl agiSecondPass
.weak agiSecondPass
.type agiSecondPass, @object
.size agiSecondPass, 8
agiSecondPass:
.zero 8

// agiStateChanges
.globl agiStateChanges
.weak agiStateChanges
.type agiStateChanges, @object
.size agiStateChanges, 8
agiStateChanges:
.zero 8

// agiTransformTimer
.globl agiTransformTimer
.weak agiTransformTimer
.type agiTransformTimer, @object
.size agiTransformTimer, 8
agiTransformTimer:
.zero 8

// agiTraverseTimer
.globl agiTraverseTimer
.weak agiTraverseTimer
.type agiTraverseTimer, @object
.size agiTraverseTimer, 8
agiTraverseTimer:
.zero 8

// agiVerbose
.globl agiVerbose
.weak agiVerbose
.type agiVerbose, @object
.size agiVerbose, 8
agiVerbose:
.zero 8

// debugTri
.globl debugTri
.weak debugTri
.type debugTri, @object
.size debugTri, 8
debugTri:
.zero 8

// defmass
.globl defmass
.weak defmass
.type defmass, @object
.size defmass, 8
defmass:
.zero 8

// gRandSeed
.globl gRandSeed
.weak gRandSeed
.type gRandSeed, @object
.size gRandSeed, 8
gRandSeed:
.zero 8


// lutQ
.globl lutQ
.weak lutQ
.type lutQ, @object
.size lutQ, 8
lutQ:
.zero 8

// masscycle
.globl masscycle
.weak masscycle
.type masscycle, @object
.size masscycle, 8
masscycle:
.zero 8

// myFont
.globl myFont
.weak myFont
.type myFont, @object
.size myFont, 8
myFont:
.zero 8

// mz_free
.globl mz_free
.weak mz_free
.type mz_free, @object
.size mz_free, 8
mz_free:
.zero 8

// swActualScreenStride
.globl swActualScreenStride
.weak swActualScreenStride
.type swActualScreenStride, @object
.size swActualScreenStride, 8
swActualScreenStride:
.zero 8

// swBlueMask
.globl swBlueMask
.weak swBlueMask
.type swBlueMask, @object
.size swBlueMask, 8
swBlueMask:
.zero 8

// swBytesPerPixel
.globl swBytesPerPixel
.weak swBytesPerPixel
.type swBytesPerPixel, @object
.size swBytesPerPixel, 8
swBytesPerPixel:
.zero 8

// swDepthBuffer
.globl swDepthBuffer
.weak swDepthBuffer
.type swDepthBuffer, @object
.size swDepthBuffer, 8
swDepthBuffer:
.zero 8

// swFbHeight
.globl swFbHeight
.weak swFbHeight
.type swFbHeight, @object
.size swFbHeight, 8
swFbHeight:
.zero 8

// swFbWidth
.globl swFbWidth
.weak swFbWidth
.type swFbWidth, @object
.size swFbWidth, 8
swFbWidth:
.zero 8

// swFindColor
.globl swFindColor
.weak swFindColor
.type swFindColor, @object
.size swFindColor, 8
swFindColor:
.zero 8

// swFrameOffset
.globl swFrameOffset
.weak swFrameOffset
.type swFrameOffset, @object
.size swFrameOffset, 8
swFrameOffset:
.zero 8

// swGreenMask
.globl swGreenMask
.weak swGreenMask
.type swGreenMask, @object
.size swGreenMask, 8
swGreenMask:
.zero 8

// swIsInterlaced
.globl swIsInterlaced
.weak swIsInterlaced
.type swIsInterlaced, @object
.size swIsInterlaced, 8
swIsInterlaced:
.zero 8

// swRedMask
.globl swRedMask
.weak swRedMask
.type swRedMask, @object
.size swRedMask, 8
swRedMask:
.zero 8

// swScreen
.globl swScreen
.weak swScreen
.type swScreen, @object
.size swScreen, 8
swScreen:
.zero 8

// swScreenStride
.globl swScreenStride
.weak swScreenStride
.type swScreenStride, @object
.size swScreenStride, 8
swScreenStride:
.zero 8

// swVtxBase
.globl swVtxBase
.weak swVtxBase
.type swVtxBase, @object
.size swVtxBase, 8
swVtxBase:
.zero 8

// tdefl_write_image_to_png_file_in_memory_ex
.globl tdefl_write_image_to_png_file_in_memory_ex
.weak tdefl_write_image_to_png_file_in_memory_ex
.type tdefl_write_image_to_png_file_in_memory_ex, @object
.size tdefl_write_image_to_png_file_in_memory_ex, 8
tdefl_write_image_to_png_file_in_memory_ex:
.zero 8

.section .text, "ax", @progbits

// DrawLabelf(Vector3&, char const*, ...)
.globl _Z10DrawLabelfR7Vector3PKcz
.weak _Z10DrawLabelfR7Vector3PKcz
.type _Z10DrawLabelfR7Vector3PKcz, @function
_Z10DrawLabelfR7Vector3PKcz:
    xor eax, eax
    ret

// GetMeshSet(char const*, char const*, Vector3*, int)
.globl _Z10GetMeshSetPKcS0_P7Vector3i
.weak _Z10GetMeshSetPKcS0_P7Vector3i
.type _Z10GetMeshSetPKcS0_P7Vector3i, @function
_Z10GetMeshSetPKcS0_P7Vector3i:
    xor eax, eax
    ret

// GetSparkLut(char const*)
.globl _Z11GetSparkLutPKc
.weak _Z11GetSparkLutPKc
.type _Z11GetSparkLutPKc, @function
_Z11GetSparkLutPKc:
    xor eax, eax
    ret

// GetBoundInfo(int, Vector3*, Vector3*, Vector3*, Vector3*, float*)
.globl _Z12GetBoundInfoiP7Vector3S0_S0_S0_Pf
.weak _Z12GetBoundInfoiP7Vector3S0_S0_S0_Pf
.type _Z12GetBoundInfoiP7Vector3S0_S0_S0_Pf, @function
_Z12GetBoundInfoiP7Vector3S0_S0_S0_Pf:
    xor eax, eax
    ret

// DumpPositions(char const*)
.globl _Z13DumpPositionsPKc
.weak _Z13DumpPositionsPKc
.type _Z13DumpPositionsPKc, @function
_Z13DumpPositionsPKc:
    xor eax, eax
    ret

// LoadPositions(char const*)
.globl _Z13LoadPositionsPKc
.weak _Z13LoadPositionsPKc
.type _Z13LoadPositionsPKc, @function
_Z13LoadPositionsPKc:
    xor eax, eax
    ret

// CheckLibraries()
.globl _Z14CheckLibrariesv
.weak _Z14CheckLibrariesv
.type _Z14CheckLibrariesv, @function
_Z14CheckLibrariesv:
    xor eax, eax
    ret

// GameStaticInit()
.globl _Z14GameStaticInitv
.weak _Z14GameStaticInitv
.type _Z14GameStaticInitv, @function
_Z14GameStaticInitv:
    xor eax, eax
    ret

// GetDLPTemplate(char*)
.globl _Z14GetDLPTemplatePc
.weak _Z14GetDLPTemplatePc
.type _Z14GetDLPTemplatePc, @function
_Z14GetDLPTemplatePc:
    xor eax, eax
    ret

// agiConeLighter(unsigned char*, unsigned int*, unsigned int*, agiMeshSet*)
.globl _Z14agiConeLighterPhPjS0_P10agiMeshSet
.weak _Z14agiConeLighterPhPjS0_P10agiMeshSet
.type _Z14agiConeLighterPhPjS0_P10agiMeshSet, @function
_Z14agiConeLighterPhPjS0_P10agiMeshSet:
    xor eax, eax
    ret

// swSetInterlace(int)
.globl _Z14swSetInterlacei
.weak _Z14swSetInterlacei
.type _Z14swSetInterlacei, @function
_Z14swSetInterlacei:
    xor eax, eax
    ret

// ShowRenderStats()
.globl _Z15ShowRenderStatsv
.weak _Z15ShowRenderStatsv
.type _Z15ShowRenderStatsv, @function
_Z15ShowRenderStatsv:
    xor eax, eax
    ret

// SetTexQualString()
.globl _Z16SetTexQualStringv
.weak _Z16SetTexQualStringv
.type _Z16SetTexQualStringv, @function
_Z16SetTexQualStringv:
    xor eax, eax
    ret

// copyrow565_to_555(void*, void*, unsigned int, unsigned int)
.globl _Z17copyrow565_to_555PvS_jj
.weak _Z17copyrow565_to_555PvS_jj
.type _Z17copyrow565_to_555PvS_jj, @function
_Z17copyrow565_to_555PvS_jj:
    xor eax, eax
    ret

// AngelReadKeyString(unsigned int)
.globl _Z18AngelReadKeyStringj
.weak _Z18AngelReadKeyStringj
.type _Z18AngelReadKeyStringj, @function
_Z18AngelReadKeyStringj:
    xor eax, eax
    ret

// DecodeDIErrorMFlag(long)
.globl _Z18DecodeDIErrorMFlagl
.weak _Z18DecodeDIErrorMFlagl
.type _Z18DecodeDIErrorMFlagl, @function
_Z18DecodeDIErrorMFlagl:
    xor eax, eax
    ret

// RestoreApplication()
.globl _Z18RestoreApplicationv
.weak _Z18RestoreApplicationv
.type _Z18RestoreApplicationv, @function
_Z18RestoreApplicationv:
    xor eax, eax
    ret

// copyrow4444_to_555(void*, void*, unsigned int, unsigned int)
.globl _Z18copyrow4444_to_555PvS_jj
.weak _Z18copyrow4444_to_555PvS_jj
.type _Z18copyrow4444_to_555PvS_jj, @function
_Z18copyrow4444_to_555PvS_jj:
    xor eax, eax
    ret

// copyrow4444_to_565(void*, void*, unsigned int, unsigned int)
.globl _Z18copyrow4444_to_565PvS_jj
.weak _Z18copyrow4444_to_565PvS_jj
.type _Z18copyrow4444_to_565PvS_jj, @function
_Z18copyrow4444_to_565PvS_jj:
    xor eax, eax
    ret

// copyrow565_to_5551(void*, void*, unsigned int, unsigned int)
.globl _Z18copyrow565_to_5551PvS_jj
.weak _Z18copyrow565_to_5551PvS_jj
.type _Z18copyrow565_to_5551PvS_jj, @function
_Z18copyrow565_to_5551PvS_jj:
    xor eax, eax
    ret

// copyrow4444_to_5551(void*, void*, unsigned int, unsigned int)
.globl _Z19copyrow4444_to_5551PvS_jj
.weak _Z19copyrow4444_to_5551PvS_jj
.type _Z19copyrow4444_to_5551PvS_jj, @function
_Z19copyrow4444_to_5551PvS_jj:
    xor eax, eax
    ret

// copyrow565_to_888rev(void*, void*, unsigned int, unsigned int)
.globl _Z20copyrow565_to_888revPvS_jj
.weak _Z20copyrow565_to_888revPvS_jj
.type _Z20copyrow565_to_888revPvS_jj, @function
_Z20copyrow565_to_888revPvS_jj:
    xor eax, eax
    ret

// DeactivateApplication()
.globl _Z21DeactivateApplicationv
.weak _Z21DeactivateApplicationv
.type _Z21DeactivateApplicationv, @function
_Z21DeactivateApplicationv:
    xor eax, eax
    ret

// agiMeshLighterQuarter(unsigned char*, unsigned int*, unsigned int*, agiMeshSet*)
.globl _Z21agiMeshLighterQuarterPhPjS0_P10agiMeshSet
.weak _Z21agiMeshLighterQuarterPhPjS0_P10agiMeshSet
.type _Z21agiMeshLighterQuarterPhPjS0_P10agiMeshSet, @function
_Z21agiMeshLighterQuarterPhPjS0_P10agiMeshSet:
    xor eax, eax
    ret

// copyrow4444_to_8888rev(void*, void*, unsigned int, unsigned int)
.globl _Z22copyrow4444_to_8888revPvS_jj
.weak _Z22copyrow4444_to_8888revPvS_jj
.type _Z22copyrow4444_to_8888revPvS_jj, @function
_Z22copyrow4444_to_8888revPvS_jj:
    xor eax, eax
    ret

// SetRainSurfaceAudioInfos()
.globl _Z24SetRainSurfaceAudioInfosv
.weak _Z24SetRainSurfaceAudioInfosv
.type _Z24SetRainSurfaceAudioInfosv, @function
_Z24SetRainSurfaceAudioInfosv:
    xor eax, eax
    ret

// SetSnowSurfaceAudioInfos()
.globl _Z24SetSnowSurfaceAudioInfosv
.weak _Z24SetSnowSurfaceAudioInfosv
.type _Z24SetSnowSurfaceAudioInfosv, @function
_Z24SetSnowSurfaceAudioInfosv:
    xor eax, eax
    ret

// SetClearSurfaceAudioInfos()
.globl _Z25SetClearSurfaceAudioInfosv
.weak _Z25SetClearSurfaceAudioInfosv
.type _Z25SetClearSurfaceAudioInfosv, @function
_Z25SetClearSurfaceAudioInfosv:
    xor eax, eax
    ret

// frand()
.globl _Z5frandv
.weak _Z5frandv
.type _Z5frandv, @function
_Z5frandv:
    xor eax, eax
    ret

// swTri(agiScreenVtx*, agiScreenVtx*, agiScreenVtx*)
.globl _Z5swTriP12agiScreenVtxS0_S0_
.weak _Z5swTriP12agiScreenVtxS0_S0_
.type _Z5swTriP12agiScreenVtxS0_S0_, @function
_Z5swTriP12agiScreenVtxS0_S0_:
    xor eax, eax
    ret

// swInit()
.globl _Z6swInitv
.weak _Z6swInitv
.type _Z6swInitv, @function
_Z6swInitv:
    xor eax, eax
    ret

// swPoly(agiScreenVtx*, int)
.globl _Z6swPolyP12agiScreenVtxi
.weak _Z6swPolyP12agiScreenVtxi
.type _Z6swPolyP12agiScreenVtxi, @function
_Z6swPolyP12agiScreenVtxi:
    xor eax, eax
    ret

// swQuad(agiScreenVtx*, agiScreenVtx*, agiScreenVtx*, agiScreenVtx*)
.globl _Z6swQuadP12agiScreenVtxS0_S0_S0_
.weak _Z6swQuadP12agiScreenVtxS0_S0_S0_
.type _Z6swQuadP12agiScreenVtxS0_S0_S0_, @function
_Z6swQuadP12agiScreenVtxS0_S0_S0_:
    xor eax, eax
    ret

// DrawEnd()
.globl _Z7DrawEndv
.weak _Z7DrawEndv
.type _Z7DrawEndv, @function
_Z7DrawEndv:
    xor eax, eax
    ret

// DrawLine(Vector3&, Vector3&)
.globl _Z8DrawLineR7Vector3S0_
.weak _Z8DrawLineR7Vector3S0_
.type _Z8DrawLineR7Vector3S0_, @function
_Z8DrawLineR7Vector3S0_:
    xor eax, eax
    ret

// DrawLine(float, float, float, float, float, float)
.globl _Z8DrawLineffffff
.weak _Z8DrawLineffffff
.type _Z8DrawLineffffff, @function
_Z8DrawLineffffff:
    xor eax, eax
    ret

// DrawBegin(Matrix34 const&)
.globl _Z9DrawBeginRK8Matrix34
.weak _Z9DrawBeginRK8Matrix34
.type _Z9DrawBeginRK8Matrix34, @function
_Z9DrawBeginRK8Matrix34:
    xor eax, eax
    ret

// DrawColor(Vector3 const&)
.globl _Z9DrawColorRK7Vector3
.weak _Z9DrawColorRK7Vector3
.type _Z9DrawColorRK7Vector3, @function
_Z9DrawColorRK7Vector3:
    xor eax, eax
    ret

// swLineInt(int, int, int, int, int)
.globl _Z9swLineIntiiiii
.weak _Z9swLineIntiiiii
.type _Z9swLineIntiiiii, @function
_Z9swLineIntiiiii:
    xor eax, eax
    ret

// AudManager::EAXEnabled()
.globl _ZN10AudManager10EAXEnabledEv
.weak _ZN10AudManager10EAXEnabledEv
.type _ZN10AudManager10EAXEnabledEv, @function
_ZN10AudManager10EAXEnabledEv:
    xor eax, eax
    ret

// AudManager::CheckCDFile(char const*)
.globl _ZN10AudManager11CheckCDFileEPKc
.weak _ZN10AudManager11CheckCDFileEPKc
.type _ZN10AudManager11CheckCDFileEPKc, @function
_ZN10AudManager11CheckCDFileEPKc:
    xor eax, eax
    ret

// AudManager::PlayCDTrack(int, bool)
.globl _ZN10AudManager11PlayCDTrackEib
.weak _ZN10AudManager11PlayCDTrackEib
.type _ZN10AudManager11PlayCDTrackEib, @function
_ZN10AudManager11PlayCDTrackEib:
    xor eax, eax
    ret

// AudManager::PlayCDTrack(int, unsigned char, unsigned char, unsigned char, bool)
.globl _ZN10AudManager11PlayCDTrackEihhhb
.weak _ZN10AudManager11PlayCDTrackEihhhb
.type _ZN10AudManager11PlayCDTrackEihhhb, @function
_ZN10AudManager11PlayCDTrackEihhhb:
    xor eax, eax
    ret

// AudManager::GetHiResMask()
.globl _ZN10AudManager12GetHiResMaskEv
.weak _ZN10AudManager12GetHiResMaskEv
.type _ZN10AudManager12GetHiResMaskEv, @function
_ZN10AudManager12GetHiResMaskEv:
    xor eax, eax
    ret

// AudManager::SetEAXPreset(unsigned long, float, float, float)
.globl _ZN10AudManager12SetEAXPresetEmfff
.weak _ZN10AudManager12SetEAXPresetEmfff
.type _ZN10AudManager12SetEAXPresetEmfff, @function
_ZN10AudManager12SetEAXPresetEmfff:
    xor eax, eax
    ret

// AudManager::SetCDPlayMode(unsigned char)
.globl _ZN10AudManager13SetCDPlayModeEh
.weak _ZN10AudManager13SetCDPlayModeEh
.type _ZN10AudManager13SetCDPlayModeEh, @function
_ZN10AudManager13SetCDPlayModeEh:
    xor eax, eax
    ret

// AudManager::AssignCDVolume(float)
.globl _ZN10AudManager14AssignCDVolumeEf
.weak _ZN10AudManager14AssignCDVolumeEf
.type _ZN10AudManager14AssignCDVolumeEf, @function
_ZN10AudManager14AssignCDVolumeEf:
    xor eax, eax
    ret

// AudManager::SetNumChannels(int)
.globl _ZN10AudManager14SetNumChannelsEi
.weak _ZN10AudManager14SetNumChannelsEi
.type _ZN10AudManager14SetNumChannelsEi, @function
_ZN10AudManager14SetNumChannelsEi:
    xor eax, eax
    ret

// AudManager::DeallocateUIADF()
.globl _ZN10AudManager15DeallocateUIADFEv
.weak _ZN10AudManager15DeallocateUIADFEv
.type _ZN10AudManager15DeallocateUIADFEv, @function
_ZN10AudManager15DeallocateUIADFEv:
    xor eax, eax
    ret

// AudManager::GetDSound3DMask()
.globl _ZN10AudManager15GetDSound3DMaskEv
.weak _ZN10AudManager15GetDSound3DMaskEv
.type _ZN10AudManager15GetDSound3DMaskEv, @function
_ZN10AudManager15GetDSound3DMaskEv:
    xor eax, eax
    ret

// AudManager::GetStereoOnMask()
.globl _ZN10AudManager15GetStereoOnMaskEv
.weak _ZN10AudManager15GetStereoOnMaskEv
.type _ZN10AudManager15GetStereoOnMaskEv, @function
_ZN10AudManager15GetStereoOnMaskEv:
    xor eax, eax
    ret

// AudManager::GetUsingEAXMask()
.globl _ZN10AudManager15GetUsingEAXMaskEv
.weak _ZN10AudManager15GetUsingEAXMaskEv
.type _ZN10AudManager15GetUsingEAXMaskEv, @function
_ZN10AudManager15GetUsingEAXMaskEv:
    xor eax, eax
    ret

// AudManager::AssignWaveVolume(float)
.globl _ZN10AudManager16AssignWaveVolumeEf
.weak _ZN10AudManager16AssignWaveVolumeEf
.type _ZN10AudManager16AssignWaveVolumeEf, @function
_ZN10AudManager16AssignWaveVolumeEf:
    xor eax, eax
    ret

// AudManager::GetCDMusicOnMask()
.globl _ZN10AudManager16GetCDMusicOnMaskEv
.weak _ZN10AudManager16GetCDMusicOnMaskEv
.type _ZN10AudManager16GetCDMusicOnMaskEv, @function
_ZN10AudManager16GetCDMusicOnMaskEv:
    xor eax, eax
    ret

// AudManager::GetSoundFXOnMask()
.globl _ZN10AudManager16GetSoundFXOnMaskEv
.weak _ZN10AudManager16GetSoundFXOnMaskEv
.type _ZN10AudManager16GetSoundFXOnMaskEv, @function
_ZN10AudManager16GetSoundFXOnMaskEv:
    xor eax, eax
    ret

// AudManager::GetCommentaryOnMask()
.globl _ZN10AudManager19GetCommentaryOnMaskEv
.weak _ZN10AudManager19GetCommentaryOnMaskEv
.type _ZN10AudManager19GetCommentaryOnMaskEv, @function
_ZN10AudManager19GetCommentaryOnMaskEv:
    xor eax, eax
    ret

// AudManager::GetHiSampleSizeMask()
.globl _ZN10AudManager19GetHiSampleSizeMaskEv
.weak _ZN10AudManager19GetHiSampleSizeMaskEv
.type _ZN10AudManager19GetHiSampleSizeMaskEv, @function
_ZN10AudManager19GetHiSampleSizeMaskEv:
    xor eax, eax
    ret

// AudManager::GetVoiceCommentaryPtr()
.globl _ZN10AudManager21GetVoiceCommentaryPtrEv
.weak _ZN10AudManager21GetVoiceCommentaryPtrEv
.type _ZN10AudManager21GetVoiceCommentaryPtrEv, @function
_ZN10AudManager21GetVoiceCommentaryPtrEv:
    xor eax, eax
    ret

// AudManager::SetVoiceCommentaryPtr(mmVoiceCommentary*)
.globl _ZN10AudManager21SetVoiceCommentaryPtrEP17mmVoiceCommentary
.weak _ZN10AudManager21SetVoiceCommentaryPtrEP17mmVoiceCommentary
.type _ZN10AudManager21SetVoiceCommentaryPtrEP17mmVoiceCommentary, @function
_ZN10AudManager21SetVoiceCommentaryPtrEP17mmVoiceCommentary:
    xor eax, eax
    ret

// AudManager::SetBitDepthAndSampleRate(int, unsigned long)
.globl _ZN10AudManager24SetBitDepthAndSampleRateEim
.weak _ZN10AudManager24SetBitDepthAndSampleRateEim
.type _ZN10AudManager24SetBitDepthAndSampleRateEim, @function
_ZN10AudManager24SetBitDepthAndSampleRateEim:
    xor eax, eax
    ret

// AudManager::Init(int, unsigned int, char*, short, short)
.globl _ZN10AudManager4InitEijPcss
.weak _ZN10AudManager4InitEijPcss
.type _ZN10AudManager4InitEijPcss, @function
_ZN10AudManager4InitEijPcss:
    xor eax, eax
    ret

// AudManager::Enable(char*, short, short)
.globl _ZN10AudManager6EnableEPcss
.weak _ZN10AudManager6EnableEPcss
.type _ZN10AudManager6EnableEPcss, @function
_ZN10AudManager6EnableEPcss:
    xor eax, eax
    ret

// AudManager::StopCD()
.globl _ZN10AudManager6StopCDEv
.weak _ZN10AudManager6StopCDEv
.type _ZN10AudManager6StopCDEv, @function
_ZN10AudManager6StopCDEv:
    xor eax, eax
    ret

// AudManager::Disable(short, short)
.globl _ZN10AudManager7DisableEss
.weak _ZN10AudManager7DisableEss
.type _ZN10AudManager7DisableEss, @function
_ZN10AudManager7DisableEss:
    xor eax, eax
    ret

// AudManager::AlwaysEAX(unsigned int)
.globl _ZN10AudManager9AlwaysEAXEj
.weak _ZN10AudManager9AlwaysEAXEj
.type _ZN10AudManager9AlwaysEAXEj, @function
_ZN10AudManager9AlwaysEAXEj:
    xor eax, eax
    ret

// AudManager::AudManager()
.globl _ZN10AudManagerC1Ev
.weak _ZN10AudManagerC1Ev
.type _ZN10AudManagerC1Ev, @function
_ZN10AudManagerC1Ev:
    xor eax, eax
    ret

// AudManager::~AudManager()
.globl _ZN10AudManagerD0Ev
.weak _ZN10AudManagerD0Ev
.type _ZN10AudManagerD0Ev, @function
_ZN10AudManagerD0Ev:
    xor eax, eax
    ret

// PUMenuBase::CreateTitle()
.globl _ZN10PUMenuBase11CreateTitleEv
.weak _ZN10PUMenuBase11CreateTitleEv
.type _ZN10PUMenuBase11CreateTitleEv, @function
_ZN10PUMenuBase11CreateTitleEv:
    xor eax, eax
    ret

// PUMenuBase::DisableExit()
.globl _ZN10PUMenuBase11DisableExitEv
.weak _ZN10PUMenuBase11DisableExitEv
.type _ZN10PUMenuBase11DisableExitEv, @function
_ZN10PUMenuBase11DisableExitEv:
    xor eax, eax
    ret

// PUMenuBase::CreateDummyBitmap()
.globl _ZN10PUMenuBase17CreateDummyBitmapEv
.weak _ZN10PUMenuBase17CreateDummyBitmapEv
.type _ZN10PUMenuBase17CreateDummyBitmapEv, @function
_ZN10PUMenuBase17CreateDummyBitmapEv:
    xor eax, eax
    ret

// PUMenuBase::Update()
.globl _ZN10PUMenuBase6UpdateEv
.weak _ZN10PUMenuBase6UpdateEv
.type _ZN10PUMenuBase6UpdateEv, @function
_ZN10PUMenuBase6UpdateEv:
    xor eax, eax
    ret

// PUMenuBase::AddExit(float, float, float, float)
.globl _ZN10PUMenuBase7AddExitEffff
.weak _ZN10PUMenuBase7AddExitEffff
.type _ZN10PUMenuBase7AddExitEffff, @function
_ZN10PUMenuBase7AddExitEffff:
    xor eax, eax
    ret

// PUMenuBase::~PUMenuBase()
.globl _ZN10PUMenuBaseD2Ev
.weak _ZN10PUMenuBaseD2Ev
.type _ZN10PUMenuBaseD2Ev, @function
_ZN10PUMenuBaseD2Ev:
    xor eax, eax
    ret

// TrackCamCS::~TrackCamCS()
.globl _ZN10TrackCamCSD1Ev
.weak _ZN10TrackCamCSD1Ev
.type _ZN10TrackCamCSD1Ev, @function
_ZN10TrackCamCSD1Ev:
    xor eax, eax
    ret

// agiBILight::agiBILight(agiPipeline*)
.globl _ZN10agiBILightC1EP11agiPipeline
.weak _ZN10agiBILightC1EP11agiPipeline
.type _ZN10agiBILightC1EP11agiPipeline, @function
_ZN10agiBILightC1EP11agiPipeline:
    xor eax, eax
    ret

// agiLighter::BeginScene()
.globl _ZN10agiLighter10BeginSceneEv
.weak _ZN10agiLighter10BeginSceneEv
.type _ZN10agiLighter10BeginSceneEv, @function
_ZN10agiLighter10BeginSceneEv:
    xor eax, eax
    ret

// agiMeshSet::ShadowInit(Vector4 const&, Vector3 const&)
.globl _ZN10agiMeshSet10ShadowInitERK7Vector4RK7Vector3
.weak _ZN10agiMeshSet10ShadowInitERK7Vector4RK7Vector3
.type _ZN10agiMeshSet10ShadowInitERK7Vector4RK7Vector3, @function
_ZN10agiMeshSet10ShadowInitERK7Vector4RK7Vector3:
    xor eax, eax
    ret

// agiMeshSet::InitLocalize()
.globl _ZN10agiMeshSet12InitLocalizeEv
.weak _ZN10agiMeshSet12InitLocalizeEv
.type _ZN10agiMeshSet12InitLocalizeEv, @function
_ZN10agiMeshSet12InitLocalizeEv:
    xor eax, eax
    ret

// agiMeshSet::MultiTexEnvMap(unsigned int*, unsigned int, agiTexDef*, Matrix34&)
.globl _ZN10agiMeshSet14MultiTexEnvMapEPjjP9agiTexDefR8Matrix34
.weak _ZN10agiMeshSet14MultiTexEnvMapEPjjP9agiTexDefR8Matrix34
.type _ZN10agiMeshSet14MultiTexEnvMapEPjjP9agiTexDefR8Matrix34, @function
_ZN10agiMeshSet14MultiTexEnvMapEPjjP9agiTexDefR8Matrix34:
    xor eax, eax
    ret

// agiMeshSet::LocalizeDirection(Vector3&, Vector3&)
.globl _ZN10agiMeshSet17LocalizeDirectionER7Vector3S1_
.weak _ZN10agiMeshSet17LocalizeDirectionER7Vector3S1_
.type _ZN10agiMeshSet17LocalizeDirectionER7Vector3S1_, @function
_ZN10agiMeshSet17LocalizeDirectionER7Vector3S1_:
    xor eax, eax
    ret

// agiMeshSet::FirstPass_HW_UV_CPV_DYNTEX(unsigned int*, Vector2*, unsigned int)
.globl _ZN10agiMeshSet26FirstPass_HW_UV_CPV_DYNTEXEPjP7Vector2j
.weak _ZN10agiMeshSet26FirstPass_HW_UV_CPV_DYNTEXEPjP7Vector2j
.type _ZN10agiMeshSet26FirstPass_HW_UV_CPV_DYNTEXEPjP7Vector2j, @function
_ZN10agiMeshSet26FirstPass_HW_UV_CPV_DYNTEXEPjP7Vector2j:
    xor eax, eax
    ret

// agiMeshSet::FirstPass_SW_UV_CPV_DYNTEX(unsigned int*, Vector2*, unsigned int)
.globl _ZN10agiMeshSet26FirstPass_SW_UV_CPV_DYNTEXEPjP7Vector2j
.weak _ZN10agiMeshSet26FirstPass_SW_UV_CPV_DYNTEXEPjP7Vector2j
.type _ZN10agiMeshSet26FirstPass_SW_UV_CPV_DYNTEXEPjP7Vector2j, @function
_ZN10agiMeshSet26FirstPass_SW_UV_CPV_DYNTEXEPjP7Vector2j:
    xor eax, eax
    ret

// agiMeshSet::FirstPass_HW_UV_CPV_noDYNTEX(unsigned int*, Vector2*, unsigned int)
.globl _ZN10agiMeshSet28FirstPass_HW_UV_CPV_noDYNTEXEPjP7Vector2j
.weak _ZN10agiMeshSet28FirstPass_HW_UV_CPV_noDYNTEXEPjP7Vector2j
.type _ZN10agiMeshSet28FirstPass_HW_UV_CPV_noDYNTEXEPjP7Vector2j, @function
_ZN10agiMeshSet28FirstPass_HW_UV_CPV_noDYNTEXEPjP7Vector2j:
    xor eax, eax
    ret

// agiMeshSet::FirstPass_HW_UV_noCPV_DYNTEX(unsigned int*, Vector2*, unsigned int)
.globl _ZN10agiMeshSet28FirstPass_HW_UV_noCPV_DYNTEXEPjP7Vector2j
.weak _ZN10agiMeshSet28FirstPass_HW_UV_noCPV_DYNTEXEPjP7Vector2j
.type _ZN10agiMeshSet28FirstPass_HW_UV_noCPV_DYNTEXEPjP7Vector2j, @function
_ZN10agiMeshSet28FirstPass_HW_UV_noCPV_DYNTEXEPjP7Vector2j:
    xor eax, eax
    ret

// agiMeshSet::FirstPass_HW_noUV_CPV_DYNTEX(unsigned int*, Vector2*, unsigned int)
.globl _ZN10agiMeshSet28FirstPass_HW_noUV_CPV_DYNTEXEPjP7Vector2j
.weak _ZN10agiMeshSet28FirstPass_HW_noUV_CPV_DYNTEXEPjP7Vector2j
.type _ZN10agiMeshSet28FirstPass_HW_noUV_CPV_DYNTEXEPjP7Vector2j, @function
_ZN10agiMeshSet28FirstPass_HW_noUV_CPV_DYNTEXEPjP7Vector2j:
    xor eax, eax
    ret

// agiMeshSet::FirstPass_SW_UV_CPV_noDYNTEX(unsigned int*, Vector2*, unsigned int)
.globl _ZN10agiMeshSet28FirstPass_SW_UV_CPV_noDYNTEXEPjP7Vector2j
.weak _ZN10agiMeshSet28FirstPass_SW_UV_CPV_noDYNTEXEPjP7Vector2j
.type _ZN10agiMeshSet28FirstPass_SW_UV_CPV_noDYNTEXEPjP7Vector2j, @function
_ZN10agiMeshSet28FirstPass_SW_UV_CPV_noDYNTEXEPjP7Vector2j:
    xor eax, eax
    ret

// agiMeshSet::FirstPass_SW_UV_noCPV_DYNTEX(unsigned int*, Vector2*, unsigned int)
.globl _ZN10agiMeshSet28FirstPass_SW_UV_noCPV_DYNTEXEPjP7Vector2j
.weak _ZN10agiMeshSet28FirstPass_SW_UV_noCPV_DYNTEXEPjP7Vector2j
.type _ZN10agiMeshSet28FirstPass_SW_UV_noCPV_DYNTEXEPjP7Vector2j, @function
_ZN10agiMeshSet28FirstPass_SW_UV_noCPV_DYNTEXEPjP7Vector2j:
    xor eax, eax
    ret

// agiMeshSet::FirstPass_SW_noUV_CPV_DYNTEX(unsigned int*, Vector2*, unsigned int)
.globl _ZN10agiMeshSet28FirstPass_SW_noUV_CPV_DYNTEXEPjP7Vector2j
.weak _ZN10agiMeshSet28FirstPass_SW_noUV_CPV_DYNTEXEPjP7Vector2j
.type _ZN10agiMeshSet28FirstPass_SW_noUV_CPV_DYNTEXEPjP7Vector2j, @function
_ZN10agiMeshSet28FirstPass_SW_noUV_CPV_DYNTEXEPjP7Vector2j:
    xor eax, eax
    ret

// agiMeshSet::FirstPass_HW_UV_noCPV_noDYNTEX(unsigned int*, Vector2*, unsigned int)
.globl _ZN10agiMeshSet30FirstPass_HW_UV_noCPV_noDYNTEXEPjP7Vector2j
.weak _ZN10agiMeshSet30FirstPass_HW_UV_noCPV_noDYNTEXEPjP7Vector2j
.type _ZN10agiMeshSet30FirstPass_HW_UV_noCPV_noDYNTEXEPjP7Vector2j, @function
_ZN10agiMeshSet30FirstPass_HW_UV_noCPV_noDYNTEXEPjP7Vector2j:
    xor eax, eax
    ret

// agiMeshSet::FirstPass_HW_noUV_CPV_noDYNTEX(unsigned int*, Vector2*, unsigned int)
.globl _ZN10agiMeshSet30FirstPass_HW_noUV_CPV_noDYNTEXEPjP7Vector2j
.weak _ZN10agiMeshSet30FirstPass_HW_noUV_CPV_noDYNTEXEPjP7Vector2j
.type _ZN10agiMeshSet30FirstPass_HW_noUV_CPV_noDYNTEXEPjP7Vector2j, @function
_ZN10agiMeshSet30FirstPass_HW_noUV_CPV_noDYNTEXEPjP7Vector2j:
    xor eax, eax
    ret

// agiMeshSet::FirstPass_HW_noUV_noCPV_DYNTEX(unsigned int*, Vector2*, unsigned int)
.globl _ZN10agiMeshSet30FirstPass_HW_noUV_noCPV_DYNTEXEPjP7Vector2j
.weak _ZN10agiMeshSet30FirstPass_HW_noUV_noCPV_DYNTEXEPjP7Vector2j
.type _ZN10agiMeshSet30FirstPass_HW_noUV_noCPV_DYNTEXEPjP7Vector2j, @function
_ZN10agiMeshSet30FirstPass_HW_noUV_noCPV_DYNTEXEPjP7Vector2j:
    xor eax, eax
    ret

// agiMeshSet::FirstPass_SW_UV_noCPV_noDYNTEX(unsigned int*, Vector2*, unsigned int)
.globl _ZN10agiMeshSet30FirstPass_SW_UV_noCPV_noDYNTEXEPjP7Vector2j
.weak _ZN10agiMeshSet30FirstPass_SW_UV_noCPV_noDYNTEXEPjP7Vector2j
.type _ZN10agiMeshSet30FirstPass_SW_UV_noCPV_noDYNTEXEPjP7Vector2j, @function
_ZN10agiMeshSet30FirstPass_SW_UV_noCPV_noDYNTEXEPjP7Vector2j:
    xor eax, eax
    ret

// agiMeshSet::FirstPass_SW_noUV_CPV_noDYNTEX(unsigned int*, Vector2*, unsigned int)
.globl _ZN10agiMeshSet30FirstPass_SW_noUV_CPV_noDYNTEXEPjP7Vector2j
.weak _ZN10agiMeshSet30FirstPass_SW_noUV_CPV_noDYNTEXEPjP7Vector2j
.type _ZN10agiMeshSet30FirstPass_SW_noUV_CPV_noDYNTEXEPjP7Vector2j, @function
_ZN10agiMeshSet30FirstPass_SW_noUV_CPV_noDYNTEXEPjP7Vector2j:
    xor eax, eax
    ret

// agiMeshSet::FirstPass_SW_noUV_noCPV_DYNTEX(unsigned int*, Vector2*, unsigned int)
.globl _ZN10agiMeshSet30FirstPass_SW_noUV_noCPV_DYNTEXEPjP7Vector2j
.weak _ZN10agiMeshSet30FirstPass_SW_noUV_noCPV_DYNTEXEPjP7Vector2j
.type _ZN10agiMeshSet30FirstPass_SW_noUV_noCPV_DYNTEXEPjP7Vector2j, @function
_ZN10agiMeshSet30FirstPass_SW_noUV_noCPV_DYNTEXEPjP7Vector2j:
    xor eax, eax
    ret

// agiMeshSet::FirstPass_HW_noUV_noCPV_noDYNTEX(unsigned int*, Vector2*, unsigned int)
.globl _ZN10agiMeshSet32FirstPass_HW_noUV_noCPV_noDYNTEXEPjP7Vector2j
.weak _ZN10agiMeshSet32FirstPass_HW_noUV_noCPV_noDYNTEXEPjP7Vector2j
.type _ZN10agiMeshSet32FirstPass_HW_noUV_noCPV_noDYNTEXEPjP7Vector2j, @function
_ZN10agiMeshSet32FirstPass_HW_noUV_noCPV_noDYNTEXEPjP7Vector2j:
    xor eax, eax
    ret

// agiMeshSet::FirstPass_SW_noUV_noCPV_noDYNTEX(unsigned int*, Vector2*, unsigned int)
.globl _ZN10agiMeshSet32FirstPass_SW_noUV_noCPV_noDYNTEXEPjP7Vector2j
.weak _ZN10agiMeshSet32FirstPass_SW_noUV_noCPV_noDYNTEXEPjP7Vector2j
.type _ZN10agiMeshSet32FirstPass_SW_noUV_noCPV_noDYNTEXEPjP7Vector2j, @function
_ZN10agiMeshSet32FirstPass_SW_noUV_noCPV_noDYNTEXEPjP7Vector2j:
    xor eax, eax
    ret

// agiMeshSet::Init(int)
.globl _ZN10agiMeshSet4InitEi
.weak _ZN10agiMeshSet4InitEi
.type _ZN10agiMeshSet4InitEi, @function
_ZN10agiMeshSet4InitEi:
    xor eax, eax
    ret

// agiMeshSet::EndGfx()
.globl _ZN10agiMeshSet6EndGfxEv
.weak _ZN10agiMeshSet6EndGfxEv
.type _ZN10agiMeshSet6EndGfxEv, @function
_ZN10agiMeshSet6EndGfxEv:
    xor eax, eax
    ret

// agiMeshSet::EnvMap(Matrix34&, agiTexDef*, unsigned int)
.globl _ZN10agiMeshSet6EnvMapER8Matrix34P9agiTexDefj
.weak _ZN10agiMeshSet6EnvMapER8Matrix34P9agiTexDefj
.type _ZN10agiMeshSet6EnvMapER8Matrix34P9agiTexDefj, @function
_ZN10agiMeshSet6EnvMapER8Matrix34P9agiTexDefj:
    xor eax, eax
    ret

// agiMeshSet::InitCards(agiMeshCardInfo&)
.globl _ZN10agiMeshSet9InitCardsER15agiMeshCardInfo
.weak _ZN10agiMeshSet9InitCardsER15agiMeshCardInfo
.type _ZN10agiMeshSet9InitCardsER15agiMeshCardInfo, @function
_ZN10agiMeshSet9InitCardsER15agiMeshCardInfo:
    xor eax, eax
    ret

// agiProjVtx::Init(int, agiLighter*, unsigned int)
.globl _ZN10agiProjVtx4InitEiP10agiLighterj
.weak _ZN10agiProjVtx4InitEiP10agiLighterj
.type _ZN10agiProjVtx4InitEiP10agiLighterj, @function
_ZN10agiProjVtx4InitEiP10agiLighterj:
    xor eax, eax
    ret

// aiGoalStop::Init()
.globl _ZN10aiGoalStop4InitEv
.weak _ZN10aiGoalStop4InitEv
.type _ZN10aiGoalStop4InitEv, @function
_ZN10aiGoalStop4InitEv:
    xor eax, eax
    ret

// mmCDPlayer::Toggle()
.globl _ZN10mmCDPlayer6ToggleEv
.weak _ZN10mmCDPlayer6ToggleEv
.type _ZN10mmCDPlayer6ToggleEv, @function
_ZN10mmCDPlayer6ToggleEv:
    xor eax, eax
    ret

// mmCDPlayer::PlayStop()
.globl _ZN10mmCDPlayer8PlayStopEv
.weak _ZN10mmCDPlayer8PlayStopEv
.type _ZN10mmCDPlayer8PlayStopEv, @function
_ZN10mmCDPlayer8PlayStopEv:
    xor eax, eax
    ret

// mmCDPlayer::NextTrack()
.globl _ZN10mmCDPlayer9NextTrackEv
.weak _ZN10mmCDPlayer9NextTrackEv
.type _ZN10mmCDPlayer9NextTrackEv, @function
_ZN10mmCDPlayer9NextTrackEv:
    xor eax, eax
    ret

// mmCDPlayer::PrevTrack()
.globl _ZN10mmCDPlayer9PrevTrackEv
.weak _ZN10mmCDPlayer9PrevTrackEv
.type _ZN10mmCDPlayer9PrevTrackEv, @function
_ZN10mmCDPlayer9PrevTrackEv:
    xor eax, eax
    ret

// mmCarModel::Deactivate()
.globl _ZN10mmCarModel10DeactivateEv
.weak _ZN10mmCarModel10DeactivateEv
.type _ZN10mmCarModel10DeactivateEv, @function
_ZN10mmCarModel10DeactivateEv:
    xor eax, eax
    ret

// mmCarModel::ApplyDamage(Vector3&, float)
.globl _ZN10mmCarModel11ApplyDamageER7Vector3f
.weak _ZN10mmCarModel11ApplyDamageER7Vector3f
.type _ZN10mmCarModel11ApplyDamageER7Vector3f, @function
_ZN10mmCarModel11ApplyDamageER7Vector3f:
    xor eax, eax
    ret

// mmCarModel::ClearDamage(bool)
.globl _ZN10mmCarModel11ClearDamageEb
.weak _ZN10mmCarModel11ClearDamageEb
.type _ZN10mmCarModel11ClearDamageEb, @function
_ZN10mmCarModel11ClearDamageEb:
    xor eax, eax
    ret

// mmCarModel::Init(char const*, mmCar*, int)
.globl _ZN10mmCarModel4InitEPKcP5mmCari
.weak _ZN10mmCarModel4InitEPKcP5mmCari
.type _ZN10mmCarModel4InitEPKcP5mmCari, @function
_ZN10mmCarModel4InitEPKcP5mmCari:
    xor eax, eax
    ret

// mmCarModel::Reset()
.globl _ZN10mmCarModel5ResetEv
.weak _ZN10mmCarModel5ResetEv
.type _ZN10mmCarModel5ResetEv, @function
_ZN10mmCarModel5ResetEv:
    xor eax, eax
    ret

// mmCarModel::Impact(Vector3*)
.globl _ZN10mmCarModel6ImpactEP7Vector3
.weak _ZN10mmCarModel6ImpactEP7Vector3
.type _ZN10mmCarModel6ImpactEP7Vector3, @function
_ZN10mmCarModel6ImpactEP7Vector3:
    xor eax, eax
    ret

// mmCarModel::Activate()
.globl _ZN10mmCarModel8ActivateEv
.weak _ZN10mmCarModel8ActivateEv
.type _ZN10mmCarModel8ActivateEv, @function
_ZN10mmCarModel8ActivateEv:
    xor eax, eax
    ret

// mmCityInfo::Load(char*)
.globl _ZN10mmCityInfo4LoadEPc
.weak _ZN10mmCityInfo4LoadEPc
.type _ZN10mmCityInfo4LoadEPc, @function
_ZN10mmCityInfo4LoadEPc:
    xor eax, eax
    ret

// mmCullCity::IsPolyWater(mmPolygon*)
.globl _ZN10mmCullCity11IsPolyWaterEP9mmPolygon
.weak _ZN10mmCullCity11IsPolyWaterEP9mmPolygon
.type _ZN10mmCullCity11IsPolyWaterEP9mmPolygon, @function
_ZN10mmCullCity11IsPolyWaterEP9mmPolygon:
    xor eax, eax
    ret

// mmCullCity::LoadBangers(char*)
.globl _ZN10mmCullCity11LoadBangersEPc
.weak _ZN10mmCullCity11LoadBangersEPc
.type _ZN10mmCullCity11LoadBangersEPc, @function
_ZN10mmCullCity11LoadBangersEPc:
    xor eax, eax
    ret

// mmCullCity::LoadFacades(char*)
.globl _ZN10mmCullCity11LoadFacadesEPc
.weak _ZN10mmCullCity11LoadFacadesEPc
.type _ZN10mmCullCity11LoadFacadesEPc, @function
_ZN10mmCullCity11LoadFacadesEPc:
    xor eax, eax
    ret

// mmCullCity::GetRoomFlags(short)
.globl _ZN10mmCullCity12GetRoomFlagsEs
.weak _ZN10mmCullCity12GetRoomFlagsEs
.type _ZN10mmCullCity12GetRoomFlagsEs, @function
_ZN10mmCullCity12GetRoomFlagsEs:
    xor eax, eax
    ret

// mmCullCity::InitObjectDetail()
.globl _ZN10mmCullCity16InitObjectDetailEv
.weak _ZN10mmCullCity16InitObjectDetailEv
.type _ZN10mmCullCity16InitObjectDetailEv, @function
_ZN10mmCullCity16InitObjectDetailEv:
    xor eax, eax
    ret

// mmCullCity::InitSnowTextures()
.globl _ZN10mmCullCity16InitSnowTexturesEv
.weak _ZN10mmCullCity16InitSnowTexturesEv
.type _ZN10mmCullCity16InitSnowTexturesEv, @function
_ZN10mmCullCity16InitSnowTexturesEv:
    xor eax, eax
    ret

// mmCullCity::UpdateSnowTextures()
.globl _ZN10mmCullCity18UpdateSnowTexturesEv
.weak _ZN10mmCullCity18UpdateSnowTexturesEv
.type _ZN10mmCullCity18UpdateSnowTexturesEv, @function
_ZN10mmCullCity18UpdateSnowTexturesEv:
    xor eax, eax
    ret

// mmCullCity::InitTimeOfDayAndWeather()
.globl _ZN10mmCullCity23InitTimeOfDayAndWeatherEv
.weak _ZN10mmCullCity23InitTimeOfDayAndWeatherEv
.type _ZN10mmCullCity23InitTimeOfDayAndWeatherEv, @function
_ZN10mmCullCity23InitTimeOfDayAndWeatherEv:
    xor eax, eax
    ret

// mmCullCity::ToggleSky()
.globl _ZN10mmCullCity9ToggleSkyEv
.weak _ZN10mmCullCity9ToggleSkyEv
.type _ZN10mmCullCity9ToggleSkyEv, @function
_ZN10mmCullCity9ToggleSkyEv:
    xor eax, eax
    ret

// mmCullCity::mmCullCity()
.globl _ZN10mmCullCityC1Ev
.weak _ZN10mmCullCityC1Ev
.type _ZN10mmCullCityC1Ev, @function
_ZN10mmCullCityC1Ev:
    xor eax, eax
    ret

// mmCullCity::~mmCullCity()
.globl _ZN10mmCullCityD0Ev
.weak _ZN10mmCullCityD0Ev
.type _ZN10mmCullCityD0Ev, @function
_ZN10mmCullCityD0Ev:
    xor eax, eax
    ret

// mmDropDown::SetDisabledColors()
.globl _ZN10mmDropDown17SetDisabledColorsEv
.weak _ZN10mmDropDown17SetDisabledColorsEv
.type _ZN10mmDropDown17SetDisabledColorsEv, @function
_ZN10mmDropDown17SetDisabledColorsEv:
    xor eax, eax
    ret

// mmDropDown::Update()
.globl _ZN10mmDropDown6UpdateEv
.weak _ZN10mmDropDown6UpdateEv
.type _ZN10mmDropDown6UpdateEv, @function
_ZN10mmDropDown6UpdateEv:
    xor eax, eax
    ret

// mmDropDown::SetString(string)
.globl _ZN10mmDropDown9SetStringE6string
.weak _ZN10mmDropDown9SetStringE6string
.type _ZN10mmDropDown9SetStringE6string, @function
_ZN10mmDropDown9SetStringE6string:
    xor eax, eax
    ret

// mmInstance::GetMeshSetSet(char const*, int, char const*, Vector3*)
.globl _ZN10mmInstance13GetMeshSetSetEPKciS1_P7Vector3
.weak _ZN10mmInstance13GetMeshSetSetEPKciS1_P7Vector3
.type _ZN10mmInstance13GetMeshSetSetEPKciS1_P7Vector3, @function
_ZN10mmInstance13GetMeshSetSetEPKciS1_P7Vector3:
    xor eax, eax
    ret

// mmInstance::GetClass()
.globl _ZN10mmInstance8GetClassEv
.weak _ZN10mmInstance8GetClassEv
.type _ZN10mmInstance8GetClassEv, @function
_ZN10mmInstance8GetClassEv:
    xor eax, eax
    ret

// mmMiscData::mmMiscData()
.globl _ZN10mmMiscDataC1Ev
.weak _ZN10mmMiscDataC1Ev
.type _ZN10mmMiscDataC1Ev, @function
_ZN10mmMiscDataC1Ev:
    xor eax, eax
    ret

// mmMiscData::~mmMiscData()
.globl _ZN10mmMiscDataD1Ev
.weak _ZN10mmMiscDataD1Ev
.type _ZN10mmMiscDataD1Ev, @function
_ZN10mmMiscDataD1Ev:
    xor eax, eax
    ret

// mmPhysExec::DoUpdateAll()
.globl _ZN10mmPhysExec11DoUpdateAllEv
.weak _ZN10mmPhysExec11DoUpdateAllEv
.type _ZN10mmPhysExec11DoUpdateAllEv, @function
_ZN10mmPhysExec11DoUpdateAllEv:
    xor eax, eax
    ret

// mmPhysExec::DoUpdatePlayerOnly()
.globl _ZN10mmPhysExec18DoUpdatePlayerOnlyEv
.weak _ZN10mmPhysExec18DoUpdatePlayerOnlyEv
.type _ZN10mmPhysExec18DoUpdatePlayerOnlyEv, @function
_ZN10mmPhysExec18DoUpdatePlayerOnlyEv:
    xor eax, eax
    ret

// mmRaceData::Load(char*)
.globl _ZN10mmRaceData4LoadEPc
.weak _ZN10mmRaceData4LoadEPc
.type _ZN10mmRaceData4LoadEPc, @function
_ZN10mmRaceData4LoadEPc:
    xor eax, eax
    ret

// mmRaceData::mmRaceData()
.globl _ZN10mmRaceDataC1Ev
.weak _ZN10mmRaceDataC1Ev
.type _ZN10mmRaceDataC1Ev, @function
_ZN10mmRaceDataC1Ev:
    xor eax, eax
    ret

// mmSpringFF::Init(IDirectInputDevice2A*)
.globl _ZN10mmSpringFF4InitEP20IDirectInputDevice2A
.weak _ZN10mmSpringFF4InitEP20IDirectInputDevice2A
.type _ZN10mmSpringFF4InitEP20IDirectInputDevice2A, @function
_ZN10mmSpringFF4InitEP20IDirectInputDevice2A:
    xor eax, eax
    ret

// mmSpringFF::Stop()
.globl _ZN10mmSpringFF4StopEv
.weak _ZN10mmSpringFF4StopEv
.type _ZN10mmSpringFF4StopEv, @function
_ZN10mmSpringFF4StopEv:
    xor eax, eax
    ret

// mmTextNode::Update()
.globl _ZN10mmTextNode6UpdateEv
.weak _ZN10mmTextNode6UpdateEv
.type _ZN10mmTextNode6UpdateEv, @function
_ZN10mmTextNode6UpdateEv:
    xor eax, eax
    ret

// mmTextNode::AddText(void*, LocString*, int, float, float)
.globl _ZN10mmTextNode7AddTextEPvP9LocStringiff
.weak _ZN10mmTextNode7AddTextEPvP9LocStringiff
.type _ZN10mmTextNode7AddTextEPvP9LocStringiff, @function
_ZN10mmTextNode7AddTextEPvP9LocStringiff:
    xor eax, eax
    ret

// DLPTemplate::GetCentroid(Vector3&, char const*)
.globl _ZN11DLPTemplate11GetCentroidER7Vector3PKc
.weak _ZN11DLPTemplate11GetCentroidER7Vector3PKc
.type _ZN11DLPTemplate11GetCentroidER7Vector3PKc, @function
_ZN11DLPTemplate11GetCentroidER7Vector3PKc:
    xor eax, eax
    ret

// DLPTemplate::Init(int, int, int)
.globl _ZN11DLPTemplate4InitEiii
.weak _ZN11DLPTemplate4InitEiii
.type _ZN11DLPTemplate4InitEiii, @function
_ZN11DLPTemplate4InitEiii:
    xor eax, eax
    ret

// DLPTemplate::Release()
.globl _ZN11DLPTemplate7ReleaseEv
.weak _ZN11DLPTemplate7ReleaseEv
.type _ZN11DLPTemplate7ReleaseEv, @function
_ZN11DLPTemplate7ReleaseEv:
    xor eax, eax
    ret

// DLPTemplate::BoundBox(Vector3&, Vector3&, char const*)
.globl _ZN11DLPTemplate8BoundBoxER7Vector3S1_PKc
.weak _ZN11DLPTemplate8BoundBoxER7Vector3S1_PKc
.type _ZN11DLPTemplate8BoundBoxER7Vector3S1_PKc, @function
_ZN11DLPTemplate8BoundBoxER7Vector3S1_PKc:
    xor eax, eax
    ret

// MenuManager::ScanGlobalKeys(int)
.globl _ZN11MenuManager14ScanGlobalKeysEi
.weak _ZN11MenuManager14ScanGlobalKeysEi
.type _ZN11MenuManager14ScanGlobalKeysEi, @function
_ZN11MenuManager14ScanGlobalKeysEi:
    xor eax, eax
    ret

// MenuManager::PlayMenuSwitchSound()
.globl _ZN11MenuManager19PlayMenuSwitchSoundEv
.weak _ZN11MenuManager19PlayMenuSwitchSoundEv
.type _ZN11MenuManager19PlayMenuSwitchSoundEv, @function
_ZN11MenuManager19PlayMenuSwitchSoundEv:
    xor eax, eax
    ret

// MenuManager::CheckBG(UIMenu*)
.globl _ZN11MenuManager7CheckBGEP6UIMenu
.weak _ZN11MenuManager7CheckBGEP6UIMenu
.type _ZN11MenuManager7CheckBGEP6UIMenu, @function
_ZN11MenuManager7CheckBGEP6UIMenu:
    xor eax, eax
    ret

// MenuManager::GetFont(int)
.globl _ZN11MenuManager7GetFontEi
.weak _ZN11MenuManager7GetFontEi
.type _ZN11MenuManager7GetFontEi, @function
_ZN11MenuManager7GetFontEi:
    xor eax, eax
    ret

// MenuManager::FindMenu(int)
.globl _ZN11MenuManager8FindMenuEi
.weak _ZN11MenuManager8FindMenuEi
.type _ZN11MenuManager8FindMenuEi, @function
_ZN11MenuManager8FindMenuEi:
    xor eax, eax
    ret

// MenuManager::DisablePU()
.globl _ZN11MenuManager9DisablePUEv
.weak _ZN11MenuManager9DisablePUEv
.type _ZN11MenuManager9DisablePUEv, @function
_ZN11MenuManager9DisablePUEv:
    xor eax, eax
    ret

// MenuManager::~MenuManager()
.globl _ZN11MenuManagerD0Ev
.weak _ZN11MenuManagerD0Ev
.type _ZN11MenuManagerD0Ev, @function
_ZN11MenuManagerD0Ev:
    xor eax, eax
    ret

// MenuManager::MenuManager()
.globl _ZN11MenuManagerC1Ev
.weak _ZN11MenuManagerC1Ev
.type _ZN11MenuManagerC1Ev, @function
_ZN11MenuManagerC1Ev:
    xor eax, eax
    ret

.globl _ZN11MenuManagerC2Ev
.weak _ZN11MenuManagerC2Ev
.type _ZN11MenuManagerC2Ev, @function
_ZN11MenuManagerC2Ev:
    xor eax, eax
    ret

// RadialGauge::Init(char const*, char const*, float*, float*, float)
.globl _ZN11RadialGauge4InitEPKcS1_PfS2_f
.weak _ZN11RadialGauge4InitEPKcS1_PfS2_f
.type _ZN11RadialGauge4InitEPKcS1_PfS2_f, @function
_ZN11RadialGauge4InitEPKcS1_PfS2_f:
    xor eax, eax
    ret

// agiPipeline::GetTexLut(char const*)
.globl _ZN11agiPipeline9GetTexLutEPKc
.weak _ZN11agiPipeline9GetTexLutEPKc
.type _ZN11agiPipeline9GetTexLutEPKc, @function
_ZN11agiPipeline9GetTexLutEPKc:
    xor eax, eax
    ret

// agiSWTexDef::IsAvailable()
.globl _ZN11agiSWTexDef11IsAvailableEv
.weak _ZN11agiSWTexDef11IsAvailableEv
.type _ZN11agiSWTexDef11IsAvailableEv, @function
_ZN11agiSWTexDef11IsAvailableEv:
    xor eax, eax
    ret

// agiSWTexDef::Set(Vector2&, Vector2&)
.globl _ZN11agiSWTexDef3SetER7Vector2S1_
.weak _ZN11agiSWTexDef3SetER7Vector2S1_
.type _ZN11agiSWTexDef3SetER7Vector2S1_, @function
_ZN11agiSWTexDef3SetER7Vector2S1_:
    xor eax, eax
    ret

// agiSWTexDef::Lock(agiTexLock&)
.globl _ZN11agiSWTexDef4LockER10agiTexLock
.weak _ZN11agiSWTexDef4LockER10agiTexLock
.type _ZN11agiSWTexDef4LockER10agiTexLock, @function
_ZN11agiSWTexDef4LockER10agiTexLock:
    xor eax, eax
    ret

// agiSWTexDef::Request()
.globl _ZN11agiSWTexDef7RequestEv
.weak _ZN11agiSWTexDef7RequestEv
.type _ZN11agiSWTexDef7RequestEv, @function
_ZN11agiSWTexDef7RequestEv:
    xor eax, eax
    ret

// agiTexSheet::GetVariationCount(char const*)
.globl _ZN11agiTexSheet17GetVariationCountEPKc
.weak _ZN11agiTexSheet17GetVariationCountEPKc
.type _ZN11agiTexSheet17GetVariationCountEPKc, @function
_ZN11agiTexSheet17GetVariationCountEPKc:
    xor eax, eax
    ret

// agiTexSheet::Kill()
.globl _ZN11agiTexSheet4KillEv
.weak _ZN11agiTexSheet4KillEv
.type _ZN11agiTexSheet4KillEv, @function
_ZN11agiTexSheet4KillEv:
    xor eax, eax
    ret

// agiTexSheet::Load(char const*)
.globl _ZN11agiTexSheet4LoadEPKc
.weak _ZN11agiTexSheet4LoadEPKc
.type _ZN11agiTexSheet4LoadEPKc, @function
_ZN11agiTexSheet4LoadEPKc:
    xor eax, eax
    ret

// agiTexSheet::Lookup(char const*, int)
.globl _ZN11agiTexSheet6LookupEPKci
.weak _ZN11agiTexSheet6LookupEPKci
.type _ZN11agiTexSheet6LookupEPKci, @function
_ZN11agiTexSheet6LookupEPKci:
    xor eax, eax
    ret

// agiTexSheet::RemapName(char const*, int)
.globl _ZN11agiTexSheet9RemapNameEPKci
.weak _ZN11agiTexSheet9RemapNameEPKci
.type _ZN11agiTexSheet9RemapNameEPKci, @function
_ZN11agiTexSheet9RemapNameEPKci:
    xor eax, eax
    ret

// aiGoalChase::CalcSpeed(float)
.globl _ZN11aiGoalChase9CalcSpeedEf
.weak _ZN11aiGoalChase9CalcSpeedEf
.type _ZN11aiGoalChase9CalcSpeedEf, @function
_ZN11aiGoalChase9CalcSpeedEf:
    xor eax, eax
    ret

// asBirthRule::InitSpark(asSparkInfo*, asSparkPos*)
.globl _ZN11asBirthRule9InitSparkEP11asSparkInfoP10asSparkPos
.weak _ZN11asBirthRule9InitSparkEP11asSparkInfoP10asSparkPos
.type _ZN11asBirthRule9InitSparkEP11asSparkInfoP10asSparkPos, @function
_ZN11asBirthRule9InitSparkEP11asSparkInfoP10asSparkPos:
    xor eax, eax
    ret

// asNetObject::PositionUpdate(Matrix34*, Vector3, float, float, float)
.globl _ZN11asNetObject14PositionUpdateEP8Matrix347Vector3fff
.weak _ZN11asNetObject14PositionUpdateEP8Matrix347Vector3fff
.type _ZN11asNetObject14PositionUpdateEP8Matrix347Vector3fff, @function
_ZN11asNetObject14PositionUpdateEP8Matrix347Vector3fff:
    xor eax, eax
    ret

// asNetObject::Update()
.globl _ZN11asNetObject6UpdateEv
.weak _ZN11asNetObject6UpdateEv
.type _ZN11asNetObject6UpdateEv, @function
_ZN11asNetObject6UpdateEv:
    xor eax, eax
    ret

// asNetObject::asNetObject()
.globl _ZN11asNetObjectC2Ev
.weak _ZN11asNetObjectC2Ev
.type _ZN11asNetObjectC2Ev, @function
_ZN11asNetObjectC2Ev:
    xor eax, eax
    ret

// asPortalWeb::AddCell(char const*, asPortalRenderable*, unsigned int)
.globl _ZN11asPortalWeb7AddCellEPKcP18asPortalRenderablej
.weak _ZN11asPortalWeb7AddCellEPKcP18asPortalRenderablej
.type _ZN11asPortalWeb7AddCellEPKcP18asPortalRenderablej, @function
_ZN11asPortalWeb7AddCellEPKcP18asPortalRenderablej:
    xor eax, eax
    ret

// asPortalWeb::AddEdge(char const*, asPortalCell*, asPortalCell*, int)
.globl _ZN11asPortalWeb7AddEdgeEPKcP12asPortalCellS3_i
.weak _ZN11asPortalWeb7AddEdgeEPKcP12asPortalCellS3_i
.type _ZN11asPortalWeb7AddEdgeEPKcP12asPortalCellS3_i, @function
_ZN11asPortalWeb7AddEdgeEPKcP12asPortalCellS3_i:
    xor eax, eax
    ret

// asRenderWeb::GetStartCell(Vector3 const&, asPortalCell*, mmPolygon**)
.globl _ZN11asRenderWeb12GetStartCellERK7Vector3P12asPortalCellPP9mmPolygon
.weak _ZN11asRenderWeb12GetStartCellERK7Vector3P12asPortalCellPP9mmPolygon
.type _ZN11asRenderWeb12GetStartCellERK7Vector3P12asPortalCellPP9mmPolygon, @function
_ZN11asRenderWeb12GetStartCellERK7Vector3P12asPortalCellPP9mmPolygon:
    xor eax, eax
    ret

// asRenderWeb::Cull()
.globl _ZN11asRenderWeb4CullEv
.weak _ZN11asRenderWeb4CullEv
.type _ZN11asRenderWeb4CullEv, @function
_ZN11asRenderWeb4CullEv:
    xor eax, eax
    ret

// asRenderWeb::Update()
.globl _ZN11asRenderWeb6UpdateEv
.weak _ZN11asRenderWeb6UpdateEv
.type _ZN11asRenderWeb6UpdateEv, @function
_ZN11asRenderWeb6UpdateEv:
    xor eax, eax
    ret

// mmBridgeMgr::ToggleDrawLabels()
.globl _ZN11mmBridgeMgr16ToggleDrawLabelsEv
.weak _ZN11mmBridgeMgr16ToggleDrawLabelsEv
.type _ZN11mmBridgeMgr16ToggleDrawLabelsEv, @function
_ZN11mmBridgeMgr16ToggleDrawLabelsEv:
    xor eax, eax
    ret

// mmBridgeSet::ReadEntry(Stream*, int)
.globl _ZN11mmBridgeSet9ReadEntryEP6Streami
.weak _ZN11mmBridgeSet9ReadEntryEP6Streami
.type _ZN11mmBridgeSet9ReadEntryEP6Streami, @function
_ZN11mmBridgeSet9ReadEntryEP6Streami:
    xor eax, eax
    ret

// mmGameMulti::UpdateGame()
.globl _ZN11mmGameMulti10UpdateGameEv
.weak _ZN11mmGameMulti10UpdateGameEv
.type _ZN11mmGameMulti10UpdateGameEv, @function
_ZN11mmGameMulti10UpdateGameEv:
    xor eax, eax
    ret

// mmGameMulti::EnableRacers()
.globl _ZN11mmGameMulti12EnableRacersEv
.weak _ZN11mmGameMulti12EnableRacersEv
.type _ZN11mmGameMulti12EnableRacersEv, @function
_ZN11mmGameMulti12EnableRacersEv:
    xor eax, eax
    ret

// mmGameMulti::SendMsg(int)
.globl _ZN11mmGameMulti7SendMsgEi
.weak _ZN11mmGameMulti7SendMsgEi
.type _ZN11mmGameMulti7SendMsgEi, @function
_ZN11mmGameMulti7SendMsgEi:
    xor eax, eax
    ret

// mmInterface::MessageCallback(void*, void*)
.globl _ZN11mmInterface15MessageCallbackEPvS0_
.weak _ZN11mmInterface15MessageCallbackEPvS0_
.type _ZN11mmInterface15MessageCallbackEPvS0_, @function
_ZN11mmInterface15MessageCallbackEPvS0_:
    xor eax, eax
    ret

// mmInterface::MessageCallback2(void*, void*)
.globl _ZN11mmInterface16MessageCallback2EPvS0_
.weak _ZN11mmInterface16MessageCallback2EPvS0_
.type _ZN11mmInterface16MessageCallback2EPvS0_, @function
_ZN11mmInterface16MessageCallback2EPvS0_:
    xor eax, eax
    ret

// mmInterface::SetupArchiveTest(int&)
.globl _ZN11mmInterface16SetupArchiveTestERi
.weak _ZN11mmInterface16SetupArchiveTestERi
.type _ZN11mmInterface16SetupArchiveTestERi, @function
_ZN11mmInterface16SetupArchiveTestERi:
    xor eax, eax
    ret

// mmInterface::Reset()
.globl _ZN11mmInterface5ResetEv
.weak _ZN11mmInterface5ResetEv
.type _ZN11mmInterface5ResetEv, @function
_ZN11mmInterface5ResetEv:
    xor eax, eax
    ret

// mmInterface::BeDone()
.globl _ZN11mmInterface6BeDoneEv
.weak _ZN11mmInterface6BeDoneEv
.type _ZN11mmInterface6BeDoneEv, @function
_ZN11mmInterface6BeDoneEv:
    xor eax, eax
    ret

// mmInterface::Update()
.globl _ZN11mmInterface6UpdateEv
.weak _ZN11mmInterface6UpdateEv
.type _ZN11mmInterface6UpdateEv, @function
_ZN11mmInterface6UpdateEv:
    xor eax, eax
    ret

// mmInterface::GetClass()
.globl _ZN11mmInterface8GetClassEv
.weak _ZN11mmInterface8GetClassEv
.type _ZN11mmInterface8GetClassEv, @function
_ZN11mmInterface8GetClassEv:
    xor eax, eax
    ret

// mmInterface::ShowMain(int)
.globl _ZN11mmInterface8ShowMainEi
.weak _ZN11mmInterface8ShowMainEi
.type _ZN11mmInterface8ShowMainEi, @function
_ZN11mmInterface8ShowMainEi:
    xor eax, eax
    ret

// mmInterface::mmInterface()
.globl _ZN11mmInterfaceC1Ev
.weak _ZN11mmInterfaceC1Ev
.type _ZN11mmInterfaceC1Ev, @function
_ZN11mmInterfaceC1Ev:
    xor eax, eax
    ret

// mmPositions::Init(int)
.globl _ZN11mmPositions4InitEi
.weak _ZN11mmPositions4InitEi
.type _ZN11mmPositions4InitEi, @function
_ZN11mmPositions4InitEi:
    xor eax, eax
    ret

// mmPositions::Load(char const*)
.globl _ZN11mmPositions4LoadEPKc
.weak _ZN11mmPositions4LoadEPKc
.type _ZN11mmPositions4LoadEPKc, @function
_ZN11mmPositions4LoadEPKc:
    xor eax, eax
    ret

// mmPositions::Recall(int, Matrix34*, int*, char*)
.globl _ZN11mmPositions6RecallEiP8Matrix34PiPc
.weak _ZN11mmPositions6RecallEiP8Matrix34PiPc
.type _ZN11mmPositions6RecallEiP8Matrix34PiPc, @function
_ZN11mmPositions6RecallEiP8Matrix34PiPc:
    xor eax, eax
    ret

// mmPositions::Register(Vector4&, int, int, int, int, char*)
.globl _ZN11mmPositions8RegisterER7Vector4iiiiPc
.weak _ZN11mmPositions8RegisterER7Vector4iiiiPc
.type _ZN11mmPositions8RegisterER7Vector4iiiiPc, @function
_ZN11mmPositions8RegisterER7Vector4iiiiPc:
    xor eax, eax
    ret

// mmPositions::mmPositions()
.globl _ZN11mmPositionsC1Ev
.weak _ZN11mmPositionsC1Ev
.type _ZN11mmPositionsC1Ev, @function
_ZN11mmPositionsC1Ev:
    xor eax, eax
    ret

// mmWaypoints::GetClosestWaypoint()
.globl _ZN11mmWaypoints18GetClosestWaypointEv
.weak _ZN11mmWaypoints18GetClosestWaypointEv
.type _ZN11mmWaypoints18GetClosestWaypointEv, @function
_ZN11mmWaypoints18GetClosestWaypointEv:
    xor eax, eax
    ret

// mmYInstance::FromMatrix(Matrix34 const&)
.globl _ZN11mmYInstance10FromMatrixERK8Matrix34
.weak _ZN11mmYInstance10FromMatrixERK8Matrix34
.type _ZN11mmYInstance10FromMatrixERK8Matrix34, @function
_ZN11mmYInstance10FromMatrixERK8Matrix34:
    xor eax, eax
    ret

// mmYInstance::GetPos()
.globl _ZN11mmYInstance6GetPosEv
.weak _ZN11mmYInstance6GetPosEv
.type _ZN11mmYInstance6GetPosEv, @function
_ZN11mmYInstance6GetPosEv:
    xor eax, eax
    ret

// mmYInstance::ToMatrix(Matrix34&)
.globl _ZN11mmYInstance8ToMatrixER8Matrix34
.weak _ZN11mmYInstance8ToMatrixER8Matrix34
.type _ZN11mmYInstance8ToMatrixER8Matrix34, @function
_ZN11mmYInstance8ToMatrixER8Matrix34:
    xor eax, eax
    ret

// mmYInstance::mmYInstance()
.globl _ZN11mmYInstanceC1Ev
.weak _ZN11mmYInstanceC1Ev
.type _ZN11mmYInstanceC1Ev, @function
_ZN11mmYInstanceC1Ev:
    xor eax, eax
    ret

// RaceMenuBase::~RaceMenuBase()
.globl _ZN12RaceMenuBaseD2Ev
.weak _ZN12RaceMenuBaseD2Ev
.type _ZN12RaceMenuBaseD2Ev, @function
_ZN12RaceMenuBaseD2Ev:
    xor eax, eax
    ret

// agiTexSorter::DoTexture(agiPolySet*)
.globl _ZN12agiTexSorter9DoTextureEP10agiPolySet
.weak _ZN12agiTexSorter9DoTextureEP10agiPolySet
.type _ZN12agiTexSorter9DoTextureEP10agiPolySet, @function
_ZN12agiTexSorter9DoTextureEP10agiPolySet:
    xor eax, eax
    ret

// asBenchStats::Reset()
.globl _ZN12asBenchStats5ResetEv
.weak _ZN12asBenchStats5ResetEv
.type _ZN12asBenchStats5ResetEv, @function
_ZN12asBenchStats5ResetEv:
    xor eax, eax
    ret

// asBenchStats::Current(asBenchStats*)
.globl _ZN12asBenchStats7CurrentEPS_
.weak _ZN12asBenchStats7CurrentEPS_
.type _ZN12asBenchStats7CurrentEPS_, @function
_ZN12asBenchStats7CurrentEPS_:
    xor eax, eax
    ret

// asInertialCS::GetVelocity(Vector3 const*)
.globl _ZN12asInertialCS11GetVelocityEPK7Vector3
.weak _ZN12asInertialCS11GetVelocityEPK7Vector3
.type _ZN12asInertialCS11GetVelocityEPK7Vector3, @function
_ZN12asInertialCS11GetVelocityEPK7Vector3:
    xor eax, eax
    ret

// asInertialCS::ApplyImpulse(Vector3 const&, Vector3 const&)
.globl _ZN12asInertialCS12ApplyImpulseERK7Vector3S2_
.weak _ZN12asInertialCS12ApplyImpulseERK7Vector3S2_
.type _ZN12asInertialCS12ApplyImpulseERK7Vector3S2_, @function
_ZN12asInertialCS12ApplyImpulseERK7Vector3S2_:
    xor eax, eax
    ret

// asInertialCS::Zero()
.globl _ZN12asInertialCS4ZeroEv
.weak _ZN12asInertialCS4ZeroEv
.type _ZN12asInertialCS4ZeroEv, @function
_ZN12asInertialCS4ZeroEv:
    xor eax, eax
    ret

// asInertialCS::Update()
.globl _ZN12asInertialCS6UpdateEv
.weak _ZN12asInertialCS6UpdateEv
.type _ZN12asInertialCS6UpdateEv, @function
_ZN12asInertialCS6UpdateEv:
    xor eax, eax
    ret

// asInertialCS::MoveICS()
.globl _ZN12asInertialCS7MoveICSEv
.weak _ZN12asInertialCS7MoveICSEv
.type _ZN12asInertialCS7MoveICSEv, @function
_ZN12asInertialCS7MoveICSEv:
    xor eax, eax
    ret

// asLineSparks::RadialBlast(int, Vector3&, Vector3&)
.globl _ZN12asLineSparks11RadialBlastEiR7Vector3S1_
.weak _ZN12asLineSparks11RadialBlastEiR7Vector3S1_
.type _ZN12asLineSparks11RadialBlastEiR7Vector3S1_, @function
_ZN12asLineSparks11RadialBlastEiR7Vector3S1_:
    xor eax, eax
    ret

// asSimulation::Benchmark()
.globl _ZN12asSimulation9BenchmarkEv
.weak _ZN12asSimulation9BenchmarkEv
.type _ZN12asSimulation9BenchmarkEv, @function
_ZN12asSimulation9BenchmarkEv:
    xor eax, eax
    ret

// mmBangerData::LaunchInstance(float, Vector3*)
.globl _ZN12mmBangerData14LaunchInstanceEfP7Vector3
.weak _ZN12mmBangerData14LaunchInstanceEfP7Vector3
.type _ZN12mmBangerData14LaunchInstanceEfP7Vector3, @function
_ZN12mmBangerData14LaunchInstanceEfP7Vector3:
    xor eax, eax
    ret

// mmFrictionFF::Init(IDirectInputDevice2A*)
.globl _ZN12mmFrictionFF4InitEP20IDirectInputDevice2A
.weak _ZN12mmFrictionFF4InitEP20IDirectInputDevice2A
.type _ZN12mmFrictionFF4InitEP20IDirectInputDevice2A, @function
_ZN12mmFrictionFF4InitEP20IDirectInputDevice2A:
    xor eax, eax
    ret

// mmFrictionFF::Stop()
.globl _ZN12mmFrictionFF4StopEv
.weak _ZN12mmFrictionFF4StopEv
.type _ZN12mmFrictionFF4StopEv, @function
_ZN12mmFrictionFF4StopEv:
    xor eax, eax
    ret

// mmGameRecord::Dump(char*)
.globl _ZN12mmGameRecord4DumpEPc
.weak _ZN12mmGameRecord4DumpEPc
.type _ZN12mmGameRecord4DumpEPc, @function
_ZN12mmGameRecord4DumpEPc:
    xor eax, eax
    ret

// mmGameRecord::Init(int)
.globl _ZN12mmGameRecord4InitEi
.weak _ZN12mmGameRecord4InitEi
.type _ZN12mmGameRecord4InitEi, @function
_ZN12mmGameRecord4InitEi:
    xor eax, eax
    ret

// mmGameRecord::DoScan(Vector4&)
.globl _ZN12mmGameRecord6DoScanER7Vector4
.weak _ZN12mmGameRecord6DoScanER7Vector4
.type _ZN12mmGameRecord6DoScanER7Vector4, @function
_ZN12mmGameRecord6DoScanER7Vector4:
    xor eax, eax
    ret

// mmGameRecord::mmGameRecord(float)
.globl _ZN12mmGameRecordC1Ef
.weak _ZN12mmGameRecordC1Ef
.type _ZN12mmGameRecordC1Ef, @function
_ZN12mmGameRecordC1Ef:
    xor eax, eax
    ret

// mmGameRecord::~mmGameRecord()
.globl _ZN12mmGameRecordD1Ev
.weak _ZN12mmGameRecordD1Ev
.type _ZN12mmGameRecordD1Ev, @function
_ZN12mmGameRecordD1Ev:
    xor eax, eax
    ret

// mmGameSingle::DisableRacers()
.globl _ZN12mmGameSingle13DisableRacersEv
.weak _ZN12mmGameSingle13DisableRacersEv
.type _ZN12mmGameSingle13DisableRacersEv, @function
_ZN12mmGameSingle13DisableRacersEv:
    xor eax, eax
    ret

// mmPhysicsMGR::AddWidgets(Bank*)
.globl _ZN12mmPhysicsMGR10AddWidgetsEP4Bank
.weak _ZN12mmPhysicsMGR10AddWidgetsEP4Bank
.type _ZN12mmPhysicsMGR10AddWidgetsEP4Bank, @function
_ZN12mmPhysicsMGR10AddWidgetsEP4Bank:
    xor eax, eax
    ret

// mmPhysicsMGR::UpdatePaused()
.globl _ZN12mmPhysicsMGR12UpdatePausedEv
.weak _ZN12mmPhysicsMGR12UpdatePausedEv
.type _ZN12mmPhysicsMGR12UpdatePausedEv, @function
_ZN12mmPhysicsMGR12UpdatePausedEv:
    xor eax, eax
    ret

// mmPhysicsMGR::Cull()
.globl _ZN12mmPhysicsMGR4CullEv
.weak _ZN12mmPhysicsMGR4CullEv
.type _ZN12mmPhysicsMGR4CullEv, @function
_ZN12mmPhysicsMGR4CullEv:
    xor eax, eax
    ret

// mmPhysicsMGR::Init(asInertialCS*, mmViewCS*)
.globl _ZN12mmPhysicsMGR4InitEP12asInertialCSP8mmViewCS
.weak _ZN12mmPhysicsMGR4InitEP12asInertialCSP8mmViewCS
.type _ZN12mmPhysicsMGR4InitEP12asInertialCSP8mmViewCS, @function
_ZN12mmPhysicsMGR4InitEP12asInertialCSP8mmViewCS:
    xor eax, eax
    ret

// mmPhysicsMGR::Reset()
.globl _ZN12mmPhysicsMGR5ResetEv
.weak _ZN12mmPhysicsMGR5ResetEv
.type _ZN12mmPhysicsMGR5ResetEv, @function
_ZN12mmPhysicsMGR5ResetEv:
    xor eax, eax
    ret

// mmPhysicsMGR::Update()
.globl _ZN12mmPhysicsMGR6UpdateEv
.weak _ZN12mmPhysicsMGR6UpdateEv
.type _ZN12mmPhysicsMGR6UpdateEv, @function
_ZN12mmPhysicsMGR6UpdateEv:
    xor eax, eax
    ret

// mmPhysicsMGR::Collide(mmIntersection*, int, short, short)
.globl _ZN12mmPhysicsMGR7CollideEP14mmIntersectioniss
.weak _ZN12mmPhysicsMGR7CollideEP14mmIntersectioniss
.type _ZN12mmPhysicsMGR7CollideEP14mmIntersectioniss, @function
_ZN12mmPhysicsMGR7CollideEP14mmIntersectioniss:
    xor eax, eax
    ret

// mmPhysicsMGR::Shutdown()
.globl _ZN12mmPhysicsMGR8ShutdownEv
.weak _ZN12mmPhysicsMGR8ShutdownEv
.type _ZN12mmPhysicsMGR8ShutdownEv, @function
_ZN12mmPhysicsMGR8ShutdownEv:
    xor eax, eax
    ret

// mmPlayerData::GetFileName()
.globl _ZN12mmPlayerData11GetFileNameEv
.weak _ZN12mmPlayerData11GetFileNameEv
.type _ZN12mmPlayerData11GetFileNameEv, @function
_ZN12mmPlayerData11GetFileNameEv:
    xor eax, eax
    ret

// mmPlayerData::GetTotalScore()
.globl _ZN12mmPlayerData13GetTotalScoreEv
.weak _ZN12mmPlayerData13GetTotalScoreEv
.type _ZN12mmPlayerData13GetTotalScoreEv, @function
_ZN12mmPlayerData13GetTotalScoreEv:
    xor eax, eax
    ret

// mmPlayerData::GetBlitzPassed()
.globl _ZN12mmPlayerData14GetBlitzPassedEv
.weak _ZN12mmPlayerData14GetBlitzPassedEv
.type _ZN12mmPlayerData14GetBlitzPassedEv, @function
_ZN12mmPlayerData14GetBlitzPassedEv:
    xor eax, eax
    ret

// mmPlayerData::GetTotalPassed()
.globl _ZN12mmPlayerData14GetTotalPassedEv
.weak _ZN12mmPlayerData14GetTotalPassedEv
.type _ZN12mmPlayerData14GetTotalPassedEv, @function
_ZN12mmPlayerData14GetTotalPassedEv:
    xor eax, eax
    ret

// mmPlayerData::GetCircuitPassed()
.globl _ZN12mmPlayerData16GetCircuitPassedEv
.weak _ZN12mmPlayerData16GetCircuitPassedEv
.type _ZN12mmPlayerData16GetCircuitPassedEv, @function
_ZN12mmPlayerData16GetCircuitPassedEv:
    xor eax, eax
    ret

// mmPlayerData::GetCheckpointPassed()
.globl _ZN12mmPlayerData19GetCheckpointPassedEv
.weak _ZN12mmPlayerData19GetCheckpointPassedEv
.type _ZN12mmPlayerData19GetCheckpointPassedEv, @function
_ZN12mmPlayerData19GetCheckpointPassedEv:
    xor eax, eax
    ret

// agiRGBLighter::agiRGBLighter()
.globl _ZN13agiRGBLighterC1Ev
.weak _ZN13agiRGBLighterC1Ev
.type _ZN13agiRGBLighterC1Ev, @function
_ZN13agiRGBLighterC1Ev:
    xor eax, eax
    ret

// aiVehicleData::aiVehicleData()
.globl _ZN13aiVehicleDataC1Ev
.weak _ZN13aiVehicleDataC1Ev
.type _ZN13aiVehicleDataC1Ev, @function
_ZN13aiVehicleDataC1Ev:
    xor eax, eax
    ret

// asMeshSetForm::SetShape(char const*, char const*, Vector3*)
.globl _ZN13asMeshSetForm8SetShapeEPKcS1_P7Vector3
.weak _ZN13asMeshSetForm8SetShapeEPKcS1_P7Vector3
.type _ZN13asMeshSetForm8SetShapeEPKcS1_P7Vector3, @function
_ZN13asMeshSetForm8SetShapeEPKcS1_P7Vector3:
    xor eax, eax
    ret

// asMeshSetForm::SetZRead(int)
.globl _ZN13asMeshSetForm8SetZReadEi
.weak _ZN13asMeshSetForm8SetZReadEi
.type _ZN13asMeshSetForm8SetZReadEi, @function
_ZN13asMeshSetForm8SetZReadEi:
    xor eax, eax
    ret

// asMeshSetForm::SetZWrite(int)
.globl _ZN13asMeshSetForm9SetZWriteEi
.weak _ZN13asMeshSetForm9SetZWriteEi
.type _ZN13asMeshSetForm9SetZWriteEi, @function
_ZN13asMeshSetForm9SetZWriteEi:
    xor eax, eax
    ret

// asMeshSetForm::asMeshSetForm()
.globl _ZN13asMeshSetFormC1Ev
.weak _ZN13asMeshSetFormC1Ev
.type _ZN13asMeshSetFormC1Ev, @function
_ZN13asMeshSetFormC1Ev:
    xor eax, eax
    ret

// mmAnimTrigger::Init(Vector3*, float*)
.globl _ZN13mmAnimTrigger4InitEP7Vector3Pf
.weak _ZN13mmAnimTrigger4InitEP7Vector3Pf
.type _ZN13mmAnimTrigger4InitEP7Vector3Pf, @function
_ZN13mmAnimTrigger4InitEP7Vector3Pf:
    xor eax, eax
    ret

// mmGameManager::LoadReplay(char const*)
.globl _ZN13mmGameManager10LoadReplayEPKc
.weak _ZN13mmGameManager10LoadReplayEPKc
.type _ZN13mmGameManager10LoadReplayEPKc, @function
_ZN13mmGameManager10LoadReplayEPKc:
    xor eax, eax
    ret

// mmGameManager::SaveReplay(char const*)
.globl _ZN13mmGameManager10SaveReplayEPKc
.weak _ZN13mmGameManager10SaveReplayEPKc
.type _ZN13mmGameManager10SaveReplayEPKc, @function
_ZN13mmGameManager10SaveReplayEPKc:
    xor eax, eax
    ret

// mmGameManager::StartReplay()
.globl _ZN13mmGameManager11StartReplayEv
.weak _ZN13mmGameManager11StartReplayEv
.type _ZN13mmGameManager11StartReplayEv, @function
_ZN13mmGameManager11StartReplayEv:
    xor eax, eax
    ret

// mmGameManager::mmGameManager()
.globl _ZN13mmGameManagerC1Ev
.weak _ZN13mmGameManagerC1Ev
.type _ZN13mmGameManagerC1Ev, @function
_ZN13mmGameManagerC1Ev:
    xor eax, eax
    ret

// mmGameManager::~mmGameManager()
.globl _ZN13mmGameManagerD0Ev
.weak _ZN13mmGameManagerD0Ev
.type _ZN13mmGameManagerD0Ev, @function
_ZN13mmGameManagerD0Ev:
    xor eax, eax
    ret

// mmRunwayLight::Draw(int)
.globl _ZN13mmRunwayLight4DrawEi
.weak _ZN13mmRunwayLight4DrawEi
.type _ZN13mmRunwayLight4DrawEi, @function
_ZN13mmRunwayLight4DrawEi:
    xor eax, eax
    ret

// mmRunwayLight::GetPos()
.globl _ZN13mmRunwayLight6GetPosEv
.weak _ZN13mmRunwayLight6GetPosEv
.type _ZN13mmRunwayLight6GetPosEv, @function
_ZN13mmRunwayLight6GetPosEv:
    xor eax, eax
    ret

// mmRunwayLight::GetScale()
.globl _ZN13mmRunwayLight8GetScaleEv
.weak _ZN13mmRunwayLight8GetScaleEv
.type _ZN13mmRunwayLight8GetScaleEv, @function
_ZN13mmRunwayLight8GetScaleEv:
    xor eax, eax
    ret

// mmRunwayLight::ToMatrix(Matrix34&)
.globl _ZN13mmRunwayLight8ToMatrixER8Matrix34
.weak _ZN13mmRunwayLight8ToMatrixER8Matrix34
.type _ZN13mmRunwayLight8ToMatrixER8Matrix34, @function
_ZN13mmRunwayLight8ToMatrixER8Matrix34:
    xor eax, eax
    ret

// mmRunwayLight::mmRunwayLight(char const*, Vector3&, Vector3&)
.globl _ZN13mmRunwayLightC1EPKcR7Vector3S3_
.weak _ZN13mmRunwayLightC1EPKcR7Vector3S3_
.type _ZN13mmRunwayLightC1EPKcR7Vector3S3_, @function
_ZN13mmRunwayLightC1EPKcR7Vector3S3_:
    xor eax, eax
    ret

// mmSkidManager::Reset()
.globl _ZN13mmSkidManager5ResetEv
.weak _ZN13mmSkidManager5ResetEv
.type _ZN13mmSkidManager5ResetEv, @function
_ZN13mmSkidManager5ResetEv:
    xor eax, eax
    ret

// mmSkidManager::ReInit(mmWheel*)
.globl _ZN13mmSkidManager6ReInitEP7mmWheel
.weak _ZN13mmSkidManager6ReInitEP7mmWheel
.type _ZN13mmSkidManager6ReInitEP7mmWheel, @function
_ZN13mmSkidManager6ReInitEP7mmWheel:
    xor eax, eax
    ret

// mmSkidManager::LayTrack()
.globl _ZN13mmSkidManager8LayTrackEv
.weak _ZN13mmSkidManager8LayTrackEv
.type _ZN13mmSkidManager8LayTrackEv, @function
_ZN13mmSkidManager8LayTrackEv:
    xor eax, eax
    ret

// mmSkidManager::mmSkidManager()
.globl _ZN13mmSkidManagerC1Ev
.weak _ZN13mmSkidManagerC1Ev
.type _ZN13mmSkidManagerC1Ev, @function
_ZN13mmSkidManagerC1Ev:
    xor eax, eax
    ret

// mmSkidManager::~mmSkidManager()
.globl _ZN13mmSkidManagerD1Ev
.weak _ZN13mmSkidManagerD1Ev
.type _ZN13mmSkidManagerD1Ev, @function
_ZN13mmSkidManagerD1Ev:
    xor eax, eax
    ret

// mmVehicleForm::Cull()
.globl _ZN13mmVehicleForm4CullEv
.weak _ZN13mmVehicleForm4CullEv
.type _ZN13mmVehicleForm4CullEv, @function
_ZN13mmVehicleForm4CullEv:
    xor eax, eax
    ret

// agiColorModel8::agiColorModel8(agiPalette*)
.globl _ZN14agiColorModel8C1EP10agiPalette
.weak _ZN14agiColorModel8C1EP10agiPalette
.type _ZN14agiColorModel8C1EP10agiPalette, @function
_ZN14agiColorModel8C1EP10agiPalette:
    xor eax, eax
    ret

// agiMonoLighter::agiMonoLighter()
.globl _ZN14agiMonoLighterC1Ev
.weak _ZN14agiMonoLighterC1Ev
.type _ZN14agiMonoLighterC1Ev, @function
_ZN14agiMonoLighterC1Ev:
    xor eax, eax
    ret

// agiSurfaceDesc::Load(char const*, char const*, int, int, int, int)
.globl _ZN14agiSurfaceDesc4LoadEPKcS1_iiii
.weak _ZN14agiSurfaceDesc4LoadEPKcS1_iiii
.type _ZN14agiSurfaceDesc4LoadEPKcS1_iiii, @function
_ZN14agiSurfaceDesc4LoadEPKcS1_iiii:
    xor eax, eax
    ret

// agiSurfaceDesc::Reload(char const*, char const*, int, int, Stream*, int, int)
.globl _ZN14agiSurfaceDesc6ReloadEPKcS1_iiP6Streamii
.weak _ZN14agiSurfaceDesc6ReloadEPKcS1_iiP6Streamii
.type _ZN14agiSurfaceDesc6ReloadEPKcS1_iiP6Streamii, @function
_ZN14agiSurfaceDesc6ReloadEPKcS1_iiP6Streamii:
    xor eax, eax
    ret

// aiAudioManager::LoadCopVoice()
.globl _ZN14aiAudioManager12LoadCopVoiceEv
.weak _ZN14aiAudioManager12LoadCopVoiceEv
.type _ZN14aiAudioManager12LoadCopVoiceEv, @function
_ZN14aiAudioManager12LoadCopVoiceEv:
    xor eax, eax
    ret

// aiAudioManager::RemoveVehicle(aiVehicleOpponent*, short)
.globl _ZN14aiAudioManager13RemoveVehicleEP17aiVehicleOpponents
.weak _ZN14aiAudioManager13RemoveVehicleEP17aiVehicleOpponents
.type _ZN14aiAudioManager13RemoveVehicleEP17aiVehicleOpponents, @function
_ZN14aiAudioManager13RemoveVehicleEP17aiVehicleOpponents:
    xor eax, eax
    ret

// aiIntersection::Path(int)
.globl _ZN14aiIntersection4PathEi
.weak _ZN14aiIntersection4PathEi
.type _ZN14aiIntersection4PathEi, @function
_ZN14aiIntersection4PathEi:
    xor eax, eax
    ret

// mmAmbientAudio::mmAmbientAudio(mmPlayer*)
.globl _ZN14mmAmbientAudioC1EP8mmPlayer
.weak _ZN14mmAmbientAudioC1EP8mmPlayer
.type _ZN14mmAmbientAudioC1EP8mmPlayer, @function
_ZN14mmAmbientAudioC1EP8mmPlayer:
    xor eax, eax
    ret

// mmAmbientAudio::~mmAmbientAudio()
.globl _ZN14mmAmbientAudioD1Ev
.weak _ZN14mmAmbientAudioD1Ev
.type _ZN14mmAmbientAudioD1Ev, @function
_ZN14mmAmbientAudioD1Ev:
    xor eax, eax
    ret

// mmCellRenderer::Init(char const*, int, int, int, int, int*)
.globl _ZN14mmCellRenderer4InitEPKciiiiPi
.weak _ZN14mmCellRenderer4InitEPKciiiiPi
.type _ZN14mmCellRenderer4InitEPKciiiiPi, @function
_ZN14mmCellRenderer4InitEPKciiiiPi:
    xor eax, eax
    ret

// mmCellRenderer::mmCellRenderer()
.globl _ZN14mmCellRendererC1Ev
.weak _ZN14mmCellRendererC1Ev
.type _ZN14mmCellRendererC1Ev, @function
_ZN14mmCellRendererC1Ev:
    xor eax, eax
    ret

// mmIntersection::InitSegment(Vector3 const&, Vector3 const&, mmBoundTemplate*, int, int)
.globl _ZN14mmIntersection11InitSegmentERK7Vector3S2_P15mmBoundTemplateii
.weak _ZN14mmIntersection11InitSegmentERK7Vector3S2_P15mmBoundTemplateii
.type _ZN14mmIntersection11InitSegmentERK7Vector3S2_P15mmBoundTemplateii, @function
_ZN14mmIntersection11InitSegmentERK7Vector3S2_P15mmBoundTemplateii:
    xor eax, eax
    ret

// mmIntersection::Transform(Matrix34 const*)
.globl _ZN14mmIntersection9TransformEPK8Matrix34
.weak _ZN14mmIntersection9TransformEPK8Matrix34
.type _ZN14mmIntersection9TransformEPK8Matrix34, @function
_ZN14mmIntersection9TransformEPK8Matrix34:
    xor eax, eax
    ret

// mmIntersection::mmIntersection()
.globl _ZN14mmIntersectionC1Ev
.weak _ZN14mmIntersectionC1Ev
.type _ZN14mmIntersectionC1Ev, @function
_ZN14mmIntersectionC1Ev:
    xor eax, eax
    ret

// mmPlayerConfig::GetControls()
.globl _ZN14mmPlayerConfig11GetControlsEv
.weak _ZN14mmPlayerConfig11GetControlsEv
.type _ZN14mmPlayerConfig11GetControlsEv, @function
_ZN14mmPlayerConfig11GetControlsEv:
    xor eax, eax
    ret

// mmPlayerConfig::GetGraphics()
.globl _ZN14mmPlayerConfig11GetGraphicsEv
.weak _ZN14mmPlayerConfig11GetGraphicsEv
.type _ZN14mmPlayerConfig11GetGraphicsEv, @function
_ZN14mmPlayerConfig11GetGraphicsEv:
    xor eax, eax
    ret

// mmPlayerConfig::GetViewSettings()
.globl _ZN14mmPlayerConfig15GetViewSettingsEv
.weak _ZN14mmPlayerConfig15GetViewSettingsEv
.type _ZN14mmPlayerConfig15GetViewSettingsEv, @function
_ZN14mmPlayerConfig15GetViewSettingsEv:
    xor eax, eax
    ret

// mmPlayerConfig::Save(char*, bool)
.globl _ZN14mmPlayerConfig4SaveEPcb
.weak _ZN14mmPlayerConfig4SaveEPcb
.type _ZN14mmPlayerConfig4SaveEPcb, @function
_ZN14mmPlayerConfig4SaveEPcb:
    xor eax, eax
    ret

// mmPlayerConfig::GetAudio()
.globl _ZN14mmPlayerConfig8GetAudioEv
.weak _ZN14mmPlayerConfig8GetAudioEv
.type _ZN14mmPlayerConfig8GetAudioEv, @function
_ZN14mmPlayerConfig8GetAudioEv:
    xor eax, eax
    ret

// mmPlayerConfig::mmPlayerConfig()
.globl _ZN14mmPlayerConfigC1Ev
.weak _ZN14mmPlayerConfigC1Ev
.type _ZN14mmPlayerConfigC1Ev, @function
_ZN14mmPlayerConfigC1Ev:
    xor eax, eax
    ret

// mmPlayerConfig::~mmPlayerConfig()
.globl _ZN14mmPlayerConfigD1Ev
.weak _ZN14mmPlayerConfigD1Ev
.type _ZN14mmPlayerConfigD1Ev, @function
_ZN14mmPlayerConfigD1Ev:
    xor eax, eax
    ret

// mmShardManager::AddWidgets(Bank*)
.globl _ZN14mmShardManager10AddWidgetsEP4Bank
.weak _ZN14mmShardManager10AddWidgetsEP4Bank
.type _ZN14mmShardManager10AddWidgetsEP4Bank, @function
_ZN14mmShardManager10AddWidgetsEP4Bank:
    xor eax, eax
    ret

// mmShardManager::EmitShards(Vector3, float, float)
.globl _ZN14mmShardManager10EmitShardsE7Vector3ff
.weak _ZN14mmShardManager10EmitShardsE7Vector3ff
.type _ZN14mmShardManager10EmitShardsE7Vector3ff, @function
_ZN14mmShardManager10EmitShardsE7Vector3ff:
    xor eax, eax
    ret

// mmShardManager::Update()
.globl _ZN14mmShardManager6UpdateEv
.weak _ZN14mmShardManager6UpdateEv
.type _ZN14mmShardManager6UpdateEv, @function
_ZN14mmShardManager6UpdateEv:
    xor eax, eax
    ret

// mmShardManager::GetClass()
.globl _ZN14mmShardManager8GetClassEv
.weak _ZN14mmShardManager8GetClassEv
.type _ZN14mmShardManager8GetClassEv, @function
_ZN14mmShardManager8GetClassEv:
    xor eax, eax
    ret

// mmTransmission::SetReverse()
.globl _ZN14mmTransmission10SetReverseEv
.weak _ZN14mmTransmission10SetReverseEv
.type _ZN14mmTransmission10SetReverseEv, @function
_ZN14mmTransmission10SetReverseEv:
    xor eax, eax
    ret

// mmTransmission::GetCurrentGear()
.globl _ZN14mmTransmission14GetCurrentGearEv
.weak _ZN14mmTransmission14GetCurrentGearEv
.type _ZN14mmTransmission14GetCurrentGearEv, @function
_ZN14mmTransmission14GetCurrentGearEv:
    xor eax, eax
    ret

// mmTransmission::SetCurrentGear(int)
.globl _ZN14mmTransmission14SetCurrentGearEi
.weak _ZN14mmTransmission14SetCurrentGearEi
.type _ZN14mmTransmission14SetCurrentGearEi, @function
_ZN14mmTransmission14SetCurrentGearEi:
    xor eax, eax
    ret

// mmTransmission::Upshift()
.globl _ZN14mmTransmission7UpshiftEv
.weak _ZN14mmTransmission7UpshiftEv
.type _ZN14mmTransmission7UpshiftEv, @function
_ZN14mmTransmission7UpshiftEv:
    xor eax, eax
    ret

// mmTransmission::SetDrive()
.globl _ZN14mmTransmission8SetDriveEv
.weak _ZN14mmTransmission8SetDriveEv
.type _ZN14mmTransmission8SetDriveEv, @function
_ZN14mmTransmission8SetDriveEv:
    xor eax, eax
    ret

// mmTransmission::Automatic(int)
.globl _ZN14mmTransmission9AutomaticEi
.weak _ZN14mmTransmission9AutomaticEi
.type _ZN14mmTransmission9AutomaticEi, @function
_ZN14mmTransmission9AutomaticEi:
    xor eax, eax
    ret

// mmTransmission::Downshift()
.globl _ZN14mmTransmission9DownshiftEv
.weak _ZN14mmTransmission9DownshiftEv
.type _ZN14mmTransmission9DownshiftEv, @function
_ZN14mmTransmission9DownshiftEv:
    xor eax, eax
    ret

// agiBILightModel::agiBILightModel(agiPipeline*)
.globl _ZN15agiBILightModelC1EP11agiPipeline
.weak _ZN15agiBILightModelC1EP11agiPipeline
.type _ZN15agiBILightModelC1EP11agiPipeline, @function
_ZN15agiBILightModelC1EP11agiPipeline:
    xor eax, eax
    ret

// agiMeshCardInfo::Init(int, agiMeshCardVertex*, int, int, int)
.globl _ZN15agiMeshCardInfo4InitEiP17agiMeshCardVertexiii
.weak _ZN15agiMeshCardInfo4InitEiP17agiMeshCardVertexiii
.type _ZN15agiMeshCardInfo4InitEiP17agiMeshCardVertexiii, @function
_ZN15agiMeshCardInfo4InitEiP17agiMeshCardVertexiii:
    xor eax, eax
    ret

// agiSWRasterizer::Card(int, int)
.globl _ZN15agiSWRasterizer4CardEii
.weak _ZN15agiSWRasterizer4CardEii
.type _ZN15agiSWRasterizer4CardEii, @function
_ZN15agiSWRasterizer4CardEii:
    xor eax, eax
    ret

// agiSWRasterizer::Quad(int, int, int, int)
.globl _ZN15agiSWRasterizer4QuadEiiii
.weak _ZN15agiSWRasterizer4QuadEiiii
.type _ZN15agiSWRasterizer4QuadEiiii, @function
_ZN15agiSWRasterizer4QuadEiiii:
    xor eax, eax
    ret

// agiSWRasterizer::Verts(agiVtxType, agiVtx*, int)
.globl _ZN15agiSWRasterizer5VertsE10agiVtxTypeP6agiVtxi
.weak _ZN15agiSWRasterizer5VertsE10agiVtxTypeP6agiVtxi
.type _ZN15agiSWRasterizer5VertsE10agiVtxTypeP6agiVtxi, @function
_ZN15agiSWRasterizer5VertsE10agiVtxTypeP6agiVtxi:
    xor eax, eax
    ret

// agiSWRasterizer::Triangle(int, int, int)
.globl _ZN15agiSWRasterizer8TriangleEiii
.weak _ZN15agiSWRasterizer8TriangleEiii
.type _ZN15agiSWRasterizer8TriangleEiii, @function
_ZN15agiSWRasterizer8TriangleEiii:
    xor eax, eax
    ret

// agiSWRasterizer::agiSWRasterizer(agiPipeline*)
.globl _ZN15agiSWRasterizerC1EP11agiPipeline
.weak _ZN15agiSWRasterizerC1EP11agiPipeline
.type _ZN15agiSWRasterizerC1EP11agiPipeline, @function
_ZN15agiSWRasterizerC1EP11agiPipeline:
    xor eax, eax
    ret

// agiSurfRenderer::Draw(DLP*, int)
.globl _ZN15agiSurfRenderer4DrawEP3DLPi
.weak _ZN15agiSurfRenderer4DrawEP3DLPi
.type _ZN15agiSurfRenderer4DrawEP3DLPi, @function
_ZN15agiSurfRenderer4DrawEP3DLPi:
    xor eax, eax
    ret

// agiSurfRenderer::Verts(agiVtx*, int)
.globl _ZN15agiSurfRenderer5VertsEP6agiVtxi
.weak _ZN15agiSurfRenderer5VertsEP6agiVtxi
.type _ZN15agiSurfRenderer5VertsEP6agiVtxi, @function
_ZN15agiSurfRenderer5VertsEP6agiVtxi:
    xor eax, eax
    ret

// agiSurfRenderer::Points(agiVtx*, int)
.globl _ZN15agiSurfRenderer6PointsEP6agiVtxi
.weak _ZN15agiSurfRenderer6PointsEP6agiVtxi
.type _ZN15agiSurfRenderer6PointsEP6agiVtxi, @function
_ZN15agiSurfRenderer6PointsEP6agiVtxi:
    xor eax, eax
    ret

// agiSurfRenderer::DrawTri(int, int, int)
.globl _ZN15agiSurfRenderer7DrawTriEiii
.weak _ZN15agiSurfRenderer7DrawTriEiii
.type _ZN15agiSurfRenderer7DrawTriEiii, @function
_ZN15agiSurfRenderer7DrawTriEiii:
    xor eax, eax
    ret

// agiSurfRenderer::EndDraw()
.globl _ZN15agiSurfRenderer7EndDrawEv
.weak _ZN15agiSurfRenderer7EndDrawEv
.type _ZN15agiSurfRenderer7EndDrawEv, @function
_ZN15agiSurfRenderer7EndDrawEv:
    xor eax, eax
    ret

// agiSurfRenderer::DrawCard(Vector3&)
.globl _ZN15agiSurfRenderer8DrawCardER7Vector3
.weak _ZN15agiSurfRenderer8DrawCardER7Vector3
.type _ZN15agiSurfRenderer8DrawCardER7Vector3, @function
_ZN15agiSurfRenderer8DrawCardER7Vector3:
    xor eax, eax
    ret

// agiSurfRenderer::DrawLine(int, int)
.globl _ZN15agiSurfRenderer8DrawLineEii
.weak _ZN15agiSurfRenderer8DrawLineEii
.type _ZN15agiSurfRenderer8DrawLineEii, @function
_ZN15agiSurfRenderer8DrawLineEii:
    xor eax, eax
    ret

// agiSurfRenderer::DrawLabel(agiVtx&, char*)
.globl _ZN15agiSurfRenderer9DrawLabelER6agiVtxPc
.weak _ZN15agiSurfRenderer9DrawLabelER6agiVtxPc
.type _ZN15agiSurfRenderer9DrawLabelER6agiVtxPc, @function
_ZN15agiSurfRenderer9DrawLabelER6agiVtxPc:
    xor eax, eax
    ret

// agiZBufRenderer::agiZBufRenderer(agiRasterizer*)
.globl _ZN15agiZBufRendererC1EP13agiRasterizer
.weak _ZN15agiZBufRendererC1EP13agiRasterizer
.type _ZN15agiZBufRendererC1EP13agiRasterizer, @function
_ZN15agiZBufRendererC1EP13agiRasterizer:
    xor eax, eax
    ret

// aiVehicleActive::aiVehicleActive()
.globl _ZN15aiVehicleActiveC1Ev
.weak _ZN15aiVehicleActiveC1Ev
.type _ZN15aiVehicleActiveC1Ev, @function
_ZN15aiVehicleActiveC1Ev:
    xor eax, eax
    ret

// aiVehicleActive::~aiVehicleActive()
.globl _ZN15aiVehicleActiveD1Ev
.weak _ZN15aiVehicleActiveD1Ev
.type _ZN15aiVehicleActiveD1Ev, @function
_ZN15aiVehicleActiveD1Ev:
    xor eax, eax
    ret

// aiVehiclePolice::Dump()
.globl _ZN15aiVehiclePolice4DumpEv
.weak _ZN15aiVehiclePolice4DumpEv
.type _ZN15aiVehiclePolice4DumpEv, @function
_ZN15aiVehiclePolice4DumpEv:
    xor eax, eax
    ret

// aiVehicleSpline::Type()
.globl _ZN15aiVehicleSpline4TypeEv
.weak _ZN15aiVehicleSpline4TypeEv
.type _ZN15aiVehicleSpline4TypeEv, @function
_ZN15aiVehicleSpline4TypeEv:
    xor eax, eax
    ret

// aiVehicleSpline::Reset()
.globl _ZN15aiVehicleSpline5ResetEv
.weak _ZN15aiVehicleSpline5ResetEv
.type _ZN15aiVehicleSpline5ResetEv, @function
_ZN15aiVehicleSpline5ResetEv:
    xor eax, eax
    ret

// aiVehicleSpline::DrawId()
.globl _ZN15aiVehicleSpline6DrawIdEv
.weak _ZN15aiVehicleSpline6DrawIdEv
.type _ZN15aiVehicleSpline6DrawIdEv, @function
_ZN15aiVehicleSpline6DrawIdEv:
    xor eax, eax
    ret

// aiVehicleSpline::Update()
.globl _ZN15aiVehicleSpline6UpdateEv
.weak _ZN15aiVehicleSpline6UpdateEv
.type _ZN15aiVehicleSpline6UpdateEv, @function
_ZN15aiVehicleSpline6UpdateEv:
    xor eax, eax
    ret

// aiVehicleSpline::GetClass()
.globl _ZN15aiVehicleSpline8GetClassEv
.weak _ZN15aiVehicleSpline8GetClassEv
.type _ZN15aiVehicleSpline8GetClassEv, @function
_ZN15aiVehicleSpline8GetClassEv:
    xor eax, eax
    ret

// mmBangerManager::Init(int)
.globl _ZN15mmBangerManager4InitEi
.weak _ZN15mmBangerManager4InitEi
.type _ZN15mmBangerManager4InitEi, @function
_ZN15mmBangerManager4InitEi:
    xor eax, eax
    ret

// mmBoundTemplate::LockIfResident()
.globl _ZN15mmBoundTemplate14LockIfResidentEv
.weak _ZN15mmBoundTemplate14LockIfResidentEv
.type _ZN15mmBoundTemplate14LockIfResidentEv, @function
_ZN15mmBoundTemplate14LockIfResidentEv:
    xor eax, eax
    ret

// mmBoundTemplate::GetBoundTemplate(char const*, char const*, Vector3*, int, int, int, int, int)
.globl _ZN15mmBoundTemplate16GetBoundTemplateEPKcS1_P7Vector3iiiii
.weak _ZN15mmBoundTemplate16GetBoundTemplateEPKcS1_P7Vector3iiiii
.type _ZN15mmBoundTemplate16GetBoundTemplateEPKcS1_P7Vector3iiiii, @function
_ZN15mmBoundTemplate16GetBoundTemplateEPKcS1_P7Vector3iiiii:
    xor eax, eax
    ret

// mmBoundTemplate::Draw()
.globl _ZN15mmBoundTemplate4DrawEv
.weak _ZN15mmBoundTemplate4DrawEv
.type _ZN15mmBoundTemplate4DrawEv, @function
_ZN15mmBoundTemplate4DrawEv:
    xor eax, eax
    ret

// mmBoundTemplate::AddRef()
.globl _ZN15mmBoundTemplate6AddRefEv
.weak _ZN15mmBoundTemplate6AddRefEv
.type _ZN15mmBoundTemplate6AddRefEv, @function
_ZN15mmBoundTemplate6AddRefEv:
    xor eax, eax
    ret

// mmBoundTemplate::Unlock()
.globl _ZN15mmBoundTemplate6UnlockEv
.weak _ZN15mmBoundTemplate6UnlockEv
.type _ZN15mmBoundTemplate6UnlockEv, @function
_ZN15mmBoundTemplate6UnlockEv:
    xor eax, eax
    ret

// mmBoundTemplate::Collide(mmIntersection*)
.globl _ZN15mmBoundTemplate7CollideEP14mmIntersection
.weak _ZN15mmBoundTemplate7CollideEP14mmIntersection
.type _ZN15mmBoundTemplate7CollideEP14mmIntersection, @function
_ZN15mmBoundTemplate7CollideEP14mmIntersection:
    xor eax, eax
    ret

// mmBoundTemplate::Release()
.globl _ZN15mmBoundTemplate7ReleaseEv
.weak _ZN15mmBoundTemplate7ReleaseEv
.type _ZN15mmBoundTemplate7ReleaseEv, @function
_ZN15mmBoundTemplate7ReleaseEv:
    xor eax, eax
    ret

// mmBoundTemplate::AddIndex(int, int, int)
.globl _ZN15mmBoundTemplate8AddIndexEiii
.weak _ZN15mmBoundTemplate8AddIndexEiii
.type _ZN15mmBoundTemplate8AddIndexEiii, @function
_ZN15mmBoundTemplate8AddIndexEiii:
    xor eax, eax
    ret

// mmBoundTemplate::DoPageIn()
.globl _ZN15mmBoundTemplate8DoPageInEv
.weak _ZN15mmBoundTemplate8DoPageInEv
.type _ZN15mmBoundTemplate8DoPageInEv, @function
_ZN15mmBoundTemplate8DoPageInEv:
    xor eax, eax
    ret

// mmEdgeBodyIsect::mmEdgeBodyIsect()
.globl _ZN15mmEdgeBodyIsectC1Ev
.weak _ZN15mmEdgeBodyIsectC1Ev
.type _ZN15mmEdgeBodyIsectC1Ev, @function
_ZN15mmEdgeBodyIsectC1Ev:
    xor eax, eax
    ret

// mmSingleCircuit::DisableRacers()
.globl _ZN15mmSingleCircuit13DisableRacersEv
.weak _ZN15mmSingleCircuit13DisableRacersEv
.type _ZN15mmSingleCircuit13DisableRacersEv, @function
_ZN15mmSingleCircuit13DisableRacersEv:
    xor eax, eax
    ret

// agiMtlParameters::Load(Stream*)
.globl _ZN16agiMtlParameters4LoadEP6Stream
.weak _ZN16agiMtlParameters4LoadEP6Stream
.type _ZN16agiMtlParameters4LoadEP6Stream, @function
_ZN16agiMtlParameters4LoadEP6Stream:
    xor eax, eax
    ret

// agiMtlParameters::agiMtlParameters()
.globl _ZN16agiMtlParametersC1Ev
.weak _ZN16agiMtlParametersC1Ev
.type _ZN16agiMtlParametersC1Ev, @function
_ZN16agiMtlParametersC1Ev:
    xor eax, eax
    ret

// aiVehicleAmbient::Dump()
.globl _ZN16aiVehicleAmbient4DumpEv
.weak _ZN16aiVehicleAmbient4DumpEv
.type _ZN16aiVehicleAmbient4DumpEv, @function
_ZN16aiVehicleAmbient4DumpEv:
    xor eax, eax
    ret

// aiVehicleManager::AddWidgets(Bank*)
.globl _ZN16aiVehicleManager10AddWidgetsEP4Bank
.weak _ZN16aiVehicleManager10AddWidgetsEP4Bank
.type _ZN16aiVehicleManager10AddWidgetsEP4Bank, @function
_ZN16aiVehicleManager10AddWidgetsEP4Bank:
    xor eax, eax
    ret

// aiVehicleManager::Save()
.globl _ZN16aiVehicleManager4SaveEv
.weak _ZN16aiVehicleManager4SaveEv
.type _ZN16aiVehicleManager4SaveEv, @function
_ZN16aiVehicleManager4SaveEv:
    xor eax, eax
    ret

// aiVehicleManager::Reset()
.globl _ZN16aiVehicleManager5ResetEv
.weak _ZN16aiVehicleManager5ResetEv
.type _ZN16aiVehicleManager5ResetEv, @function
_ZN16aiVehicleManager5ResetEv:
    xor eax, eax
    ret

// aiVehicleManager::Detach(aiVehicleActive*)
.globl _ZN16aiVehicleManager6DetachEP15aiVehicleActive
.weak _ZN16aiVehicleManager6DetachEP15aiVehicleActive
.type _ZN16aiVehicleManager6DetachEP15aiVehicleActive, @function
_ZN16aiVehicleManager6DetachEP15aiVehicleActive:
    xor eax, eax
    ret

// aiVehicleManager::Update()
.globl _ZN16aiVehicleManager6UpdateEv
.weak _ZN16aiVehicleManager6UpdateEv
.type _ZN16aiVehicleManager6UpdateEv, @function
_ZN16aiVehicleManager6UpdateEv:
    xor eax, eax
    ret

// mmBangerInstance::ComputeLod(float, float)
.globl _ZN16mmBangerInstance10ComputeLodEff
.weak _ZN16mmBangerInstance10ComputeLodEff
.type _ZN16mmBangerInstance10ComputeLodEff, @function
_ZN16mmBangerInstance10ComputeLodEff:
    xor eax, eax
    ret

// mmBangerInstance::DrawShadow()
.globl _ZN16mmBangerInstance10DrawShadowEv
.weak _ZN16mmBangerInstance10DrawShadowEv
.type _ZN16mmBangerInstance10DrawShadowEv, @function
_ZN16mmBangerInstance10DrawShadowEv:
    xor eax, eax
    ret

// mmBangerInstance::Draw(int)
.globl _ZN16mmBangerInstance4DrawEi
.weak _ZN16mmBangerInstance4DrawEi
.type _ZN16mmBangerInstance4DrawEi, @function
_ZN16mmBangerInstance4DrawEi:
    xor eax, eax
    ret

// mmBangerInstance::DrawGlow()
.globl _ZN16mmBangerInstance8DrawGlowEv
.weak _ZN16mmBangerInstance8DrawGlowEv
.type _ZN16mmBangerInstance8DrawGlowEv, @function
_ZN16mmBangerInstance8DrawGlowEv:
    xor eax, eax
    ret

// mmMatrixInstance::GetClass()
.globl _ZN16mmMatrixInstance8GetClassEv
.weak _ZN16mmMatrixInstance8GetClassEv
.type _ZN16mmMatrixInstance8GetClassEv, @function
_ZN16mmMatrixInstance8GetClassEv:
    xor eax, eax
    ret

// mmPlayerCarAudio::StartSiren()
.globl _ZN16mmPlayerCarAudio10StartSirenEv
.weak _ZN16mmPlayerCarAudio10StartSirenEv
.type _ZN16mmPlayerCarAudio10StartSirenEv, @function
_ZN16mmPlayerCarAudio10StartSirenEv:
    xor eax, eax
    ret

// mmPlayerCarAudio::StopSiren()
.globl _ZN16mmPlayerCarAudio9StopSirenEv
.weak _ZN16mmPlayerCarAudio9StopSirenEv
.type _ZN16mmPlayerCarAudio9StopSirenEv, @function
_ZN16mmPlayerCarAudio9StopSirenEv:
    xor eax, eax
    ret

// mmStaticInstance::SizeOf()
.globl _ZN16mmStaticInstance6SizeOfEv
.weak _ZN16mmStaticInstance6SizeOfEv
.type _ZN16mmStaticInstance6SizeOfEv, @function
_ZN16mmStaticInstance6SizeOfEv:
    xor eax, eax
    ret

// agiPhysParameters::Load(Stream*)
.globl _ZN17agiPhysParameters4LoadEP6Stream
.weak _ZN17agiPhysParameters4LoadEP6Stream
.type _ZN17agiPhysParameters4LoadEP6Stream, @function
_ZN17agiPhysParameters4LoadEP6Stream:
    xor eax, eax
    ret

// agiViewParameters::agiViewParameters()
.globl _ZN17agiViewParametersC1Ev
.weak _ZN17agiViewParametersC1Ev
.type _ZN17agiViewParametersC1Ev, @function
_ZN17agiViewParametersC1Ev:
    xor eax, eax
    ret

// aiVehicleInstance::DrawShadow()
.globl _ZN17aiVehicleInstance10DrawShadowEv
.weak _ZN17aiVehicleInstance10DrawShadowEv
.type _ZN17aiVehicleInstance10DrawShadowEv, @function
_ZN17aiVehicleInstance10DrawShadowEv:
    xor eax, eax
    ret

// aiVehicleInstance::FromMatrix(Matrix34 const&)
.globl _ZN17aiVehicleInstance10FromMatrixERK8Matrix34
.weak _ZN17aiVehicleInstance10FromMatrixERK8Matrix34
.type _ZN17aiVehicleInstance10FromMatrixERK8Matrix34, @function
_ZN17aiVehicleInstance10FromMatrixERK8Matrix34:
    xor eax, eax
    ret

// aiVehicleInstance::GetVelocity()
.globl _ZN17aiVehicleInstance11GetVelocityEv
.weak _ZN17aiVehicleInstance11GetVelocityEv
.type _ZN17aiVehicleInstance11GetVelocityEv, @function
_ZN17aiVehicleInstance11GetVelocityEv:
    xor eax, eax
    ret

// aiVehicleInstance::AttachEntity()
.globl _ZN17aiVehicleInstance12AttachEntityEv
.weak _ZN17aiVehicleInstance12AttachEntityEv
.type _ZN17aiVehicleInstance12AttachEntityEv, @function
_ZN17aiVehicleInstance12AttachEntityEv:
    xor eax, eax
    ret

// aiVehicleInstance::Draw(int)
.globl _ZN17aiVehicleInstance4DrawEi
.weak _ZN17aiVehicleInstance4DrawEi
.type _ZN17aiVehicleInstance4DrawEi, @function
_ZN17aiVehicleInstance4DrawEi:
    xor eax, eax
    ret

// aiVehicleInstance::GetPos()
.globl _ZN17aiVehicleInstance6GetPosEv
.weak _ZN17aiVehicleInstance6GetPosEv
.type _ZN17aiVehicleInstance6GetPosEv, @function
_ZN17aiVehicleInstance6GetPosEv:
    xor eax, eax
    ret

// aiVehicleInstance::GetData()
.globl _ZN17aiVehicleInstance7GetDataEv
.weak _ZN17aiVehicleInstance7GetDataEv
.type _ZN17aiVehicleInstance7GetDataEv, @function
_ZN17aiVehicleInstance7GetDataEv:
    xor eax, eax
    ret

// aiVehicleInstance::DrawGlow()
.globl _ZN17aiVehicleInstance8DrawGlowEv
.weak _ZN17aiVehicleInstance8DrawGlowEv
.type _ZN17aiVehicleInstance8DrawGlowEv, @function
_ZN17aiVehicleInstance8DrawGlowEv:
    xor eax, eax
    ret

// aiVehicleInstance::GetClass()
.globl _ZN17aiVehicleInstance8GetClassEv
.weak _ZN17aiVehicleInstance8GetClassEv
.type _ZN17aiVehicleInstance8GetClassEv, @function
_ZN17aiVehicleInstance8GetClassEv:
    xor eax, eax
    ret

// aiVehicleInstance::ToMatrix(Matrix34&)
.globl _ZN17aiVehicleInstance8ToMatrixER8Matrix34
.weak _ZN17aiVehicleInstance8ToMatrixER8Matrix34
.type _ZN17aiVehicleInstance8ToMatrixER8Matrix34, @function
_ZN17aiVehicleInstance8ToMatrixER8Matrix34:
    xor eax, eax
    ret

// aiVehicleInstance::GetEntity()
.globl _ZN17aiVehicleInstance9GetEntityEv
.weak _ZN17aiVehicleInstance9GetEntityEv
.type _ZN17aiVehicleInstance9GetEntityEv, @function
_ZN17aiVehicleInstance9GetEntityEv:
    xor eax, eax
    ret

// aiVehicleOpponent::AddToAiAudMgr()
.globl _ZN17aiVehicleOpponent13AddToAiAudMgrEv
.weak _ZN17aiVehicleOpponent13AddToAiAudMgrEv
.type _ZN17aiVehicleOpponent13AddToAiAudMgrEv, @function
_ZN17aiVehicleOpponent13AddToAiAudMgrEv:
    xor eax, eax
    ret

// aiVehicleOpponent::Dump()
.globl _ZN17aiVehicleOpponent4DumpEv
.weak _ZN17aiVehicleOpponent4DumpEv
.type _ZN17aiVehicleOpponent4DumpEv, @function
_ZN17aiVehicleOpponent4DumpEv:
    xor eax, eax
    ret

// aiVehicleOpponent::AddWidget(Bank*)
.globl _ZN17aiVehicleOpponent9AddWidgetEP4Bank
.weak _ZN17aiVehicleOpponent9AddWidgetEP4Bank
.type _ZN17aiVehicleOpponent9AddWidgetEP4Bank, @function
_ZN17aiVehicleOpponent9AddWidgetEP4Bank:
    xor eax, eax
    ret

// mmPlayerDirectory::~mmPlayerDirectory()
.globl _ZN17mmPlayerDirectoryD1Ev
.weak _ZN17mmPlayerDirectoryD1Ev
.type _ZN17mmPlayerDirectoryD1Ev, @function
_ZN17mmPlayerDirectoryD1Ev:
    xor eax, eax
    ret

// mmTrailerInstance::DrawShadow()
.globl _ZN17mmTrailerInstance10DrawShadowEv
.weak _ZN17mmTrailerInstance10DrawShadowEv
.type _ZN17mmTrailerInstance10DrawShadowEv, @function
_ZN17mmTrailerInstance10DrawShadowEv:
    xor eax, eax
    ret

// mmTrailerInstance::FromMatrix(Matrix34 const&)
.globl _ZN17mmTrailerInstance10FromMatrixERK8Matrix34
.weak _ZN17mmTrailerInstance10FromMatrixERK8Matrix34
.type _ZN17mmTrailerInstance10FromMatrixERK8Matrix34, @function
_ZN17mmTrailerInstance10FromMatrixERK8Matrix34:
    xor eax, eax
    ret

// mmTrailerInstance::GetVelocity()
.globl _ZN17mmTrailerInstance11GetVelocityEv
.weak _ZN17mmTrailerInstance11GetVelocityEv
.type _ZN17mmTrailerInstance11GetVelocityEv, @function
_ZN17mmTrailerInstance11GetVelocityEv:
    xor eax, eax
    ret

// mmTrailerInstance::AttachEntity()
.globl _ZN17mmTrailerInstance12AttachEntityEv
.weak _ZN17mmTrailerInstance12AttachEntityEv
.type _ZN17mmTrailerInstance12AttachEntityEv, @function
_ZN17mmTrailerInstance12AttachEntityEv:
    xor eax, eax
    ret

// mmTrailerInstance::Draw(int)
.globl _ZN17mmTrailerInstance4DrawEi
.weak _ZN17mmTrailerInstance4DrawEi
.type _ZN17mmTrailerInstance4DrawEi, @function
_ZN17mmTrailerInstance4DrawEi:
    xor eax, eax
    ret

// mmTrailerInstance::GetPos()
.globl _ZN17mmTrailerInstance6GetPosEv
.weak _ZN17mmTrailerInstance6GetPosEv
.type _ZN17mmTrailerInstance6GetPosEv, @function
_ZN17mmTrailerInstance6GetPosEv:
    xor eax, eax
    ret

// mmTrailerInstance::ToMatrix(Matrix34&)
.globl _ZN17mmTrailerInstance8ToMatrixER8Matrix34
.weak _ZN17mmTrailerInstance8ToMatrixER8Matrix34
.type _ZN17mmTrailerInstance8ToMatrixER8Matrix34, @function
_ZN17mmTrailerInstance8ToMatrixER8Matrix34:
    xor eax, eax
    ret

// mmTrailerInstance::GetEntity()
.globl _ZN17mmTrailerInstance9GetEntityEv
.weak _ZN17mmTrailerInstance9GetEntityEv
.type _ZN17mmTrailerInstance9GetEntityEv, @function
_ZN17mmTrailerInstance9GetEntityEv:
    xor eax, eax
    ret

// mmVoiceCommentary::PlayPreRace()
.globl _ZN17mmVoiceCommentary11PlayPreRaceEv
.weak _ZN17mmVoiceCommentary11PlayPreRaceEv
.type _ZN17mmVoiceCommentary11PlayPreRaceEv, @function
_ZN17mmVoiceCommentary11PlayPreRaceEv:
    xor eax, eax
    ret

// mmVoiceCommentary::SetFrequency(float)
.globl _ZN17mmVoiceCommentary12SetFrequencyEf
.weak _ZN17mmVoiceCommentary12SetFrequencyEf
.type _ZN17mmVoiceCommentary12SetFrequencyEf, @function
_ZN17mmVoiceCommentary12SetFrequencyEf:
    xor eax, eax
    ret

// mmVoiceCommentary::ValidateCity(char*)
.globl _ZN17mmVoiceCommentary12ValidateCityEPc
.weak _ZN17mmVoiceCommentary12ValidateCityEPc
.type _ZN17mmVoiceCommentary12ValidateCityEPc, @function
_ZN17mmVoiceCommentary12ValidateCityEPc:
    xor eax, eax
    ret

// mmVoiceCommentary::PlayCRPreRace()
.globl _ZN17mmVoiceCommentary13PlayCRPreRaceEv
.weak _ZN17mmVoiceCommentary13PlayCRPreRaceEv
.type _ZN17mmVoiceCommentary13PlayCRPreRaceEv, @function
_ZN17mmVoiceCommentary13PlayCRPreRaceEv:
    xor eax, eax
    ret

// mmVoiceCommentary::PlayTimePenalty()
.globl _ZN17mmVoiceCommentary15PlayTimePenaltyEv
.weak _ZN17mmVoiceCommentary15PlayTimePenaltyEv
.type _ZN17mmVoiceCommentary15PlayTimePenaltyEv, @function
_ZN17mmVoiceCommentary15PlayTimePenaltyEv:
    xor eax, eax
    ret

// mmVoiceCommentary::PlayCR(short, short)
.globl _ZN17mmVoiceCommentary6PlayCREss
.weak _ZN17mmVoiceCommentary6PlayCREss
.type _ZN17mmVoiceCommentary6PlayCREss, @function
_ZN17mmVoiceCommentary6PlayCREss:
    xor eax, eax
    ret

// mmVoiceCommentary::StopNow()
.globl _ZN17mmVoiceCommentary7StopNowEv
.weak _ZN17mmVoiceCommentary7StopNowEv
.type _ZN17mmVoiceCommentary7StopNowEv, @function
_ZN17mmVoiceCommentary7StopNowEv:
    xor eax, eax
    ret

// mmVoiceCommentary::PlayRoam()
.globl _ZN17mmVoiceCommentary8PlayRoamEv
.weak _ZN17mmVoiceCommentary8PlayRoamEv
.type _ZN17mmVoiceCommentary8PlayRoamEv, @function
_ZN17mmVoiceCommentary8PlayRoamEv:
    xor eax, eax
    ret

// mmVoiceCommentary::mmVoiceCommentary()
.globl _ZN17mmVoiceCommentaryC1Ev
.weak _ZN17mmVoiceCommentaryC1Ev
.type _ZN17mmVoiceCommentaryC1Ev, @function
_ZN17mmVoiceCommentaryC1Ev:
    xor eax, eax
    ret

// aiGoalFollowWayPts::AvoidCollision(int)
.globl _ZN18aiGoalFollowWayPts14AvoidCollisionEi
.weak _ZN18aiGoalFollowWayPts14AvoidCollisionEi
.type _ZN18aiGoalFollowWayPts14AvoidCollisionEi, @function
_ZN18aiGoalFollowWayPts14AvoidCollisionEi:
    xor eax, eax
    ret

// aiGoalFollowWayPts::DetectCollision(int*)
.globl _ZN18aiGoalFollowWayPts15DetectCollisionEPi
.weak _ZN18aiGoalFollowWayPts15DetectCollisionEPi
.type _ZN18aiGoalFollowWayPts15DetectCollisionEPi, @function
_ZN18aiGoalFollowWayPts15DetectCollisionEPi:
    xor eax, eax
    ret

// aiGoalFollowWayPts::SolveTargetPoint()
.globl _ZN18aiGoalFollowWayPts16SolveTargetPointEv
.weak _ZN18aiGoalFollowWayPts16SolveTargetPointEv
.type _ZN18aiGoalFollowWayPts16SolveTargetPointEv, @function
_ZN18aiGoalFollowWayPts16SolveTargetPointEv:
    xor eax, eax
    ret

// aiGoalFollowWayPts::DetRdSegBetweenInts(aiIntersection*, aiIntersection*)
.globl _ZN18aiGoalFollowWayPts19DetRdSegBetweenIntsEP14aiIntersectionS1_
.weak _ZN18aiGoalFollowWayPts19DetRdSegBetweenIntsEP14aiIntersectionS1_
.type _ZN18aiGoalFollowWayPts19DetRdSegBetweenIntsEP14aiIntersectionS1_, @function
_ZN18aiGoalFollowWayPts19DetRdSegBetweenIntsEP14aiIntersectionS1_:
    xor eax, eax
    ret

// aiGoalFollowWayPts::AvoidOpponentCollision(aiVehicleOpponent*)
.globl _ZN18aiGoalFollowWayPts22AvoidOpponentCollisionEP17aiVehicleOpponent
.weak _ZN18aiGoalFollowWayPts22AvoidOpponentCollisionEP17aiVehicleOpponent
.type _ZN18aiGoalFollowWayPts22AvoidOpponentCollisionEP17aiVehicleOpponent, @function
_ZN18aiGoalFollowWayPts22AvoidOpponentCollisionEP17aiVehicleOpponent:
    xor eax, eax
    ret

// aiGoalFollowWayPts::DetectOpponentCollision()
.globl _ZN18aiGoalFollowWayPts23DetectOpponentCollisionEv
.weak _ZN18aiGoalFollowWayPts23DetectOpponentCollisionEv
.type _ZN18aiGoalFollowWayPts23DetectOpponentCollisionEv, @function
_ZN18aiGoalFollowWayPts23DetectOpponentCollisionEv:
    xor eax, eax
    ret

// aiGoalFollowWayPts::Init()
.globl _ZN18aiGoalFollowWayPts4InitEv
.weak _ZN18aiGoalFollowWayPts4InitEv
.type _ZN18aiGoalFollowWayPts4InitEv, @function
_ZN18aiGoalFollowWayPts4InitEv:
    xor eax, eax
    ret

// aiGoalFollowWayPts::PlanRoute()
.globl _ZN18aiGoalFollowWayPts9PlanRouteEv
.weak _ZN18aiGoalFollowWayPts9PlanRouteEv
.type _ZN18aiGoalFollowWayPts9PlanRouteEv, @function
_ZN18aiGoalFollowWayPts9PlanRouteEv:
    xor eax, eax
    ret

// aiGoalFollowWayPts::aiGoalFollowWayPts(char*, aiRailSet*, aiVehicleOpponent*, bool*, bool*, bool*, char const*, float)
.globl _ZN18aiGoalFollowWayPtsC1EPcP9aiRailSetP17aiVehicleOpponentPbS5_S5_PKcf
.weak _ZN18aiGoalFollowWayPtsC1EPcP9aiRailSetP17aiVehicleOpponentPbS5_S5_PKcf
.type _ZN18aiGoalFollowWayPtsC1EPcP9aiRailSetP17aiVehicleOpponentPbS5_S5_PKcf, @function
_ZN18aiGoalFollowWayPtsC1EPcP9aiRailSetP17aiVehicleOpponentPbS5_S5_PKcf:
    xor eax, eax
    ret

// aiGoalFollowWayPts::~aiGoalFollowWayPts()
.globl _ZN18aiGoalFollowWayPtsD1Ev
.weak _ZN18aiGoalFollowWayPtsD1Ev
.type _ZN18aiGoalFollowWayPtsD1Ev, @function
_ZN18aiGoalFollowWayPtsD1Ev:
    xor eax, eax
    ret

// mmBuildingInstance::SizeOf()
.globl _ZN18mmBuildingInstance6SizeOfEv
.weak _ZN18mmBuildingInstance6SizeOfEv
.type _ZN18mmBuildingInstance6SizeOfEv, @function
_ZN18mmBuildingInstance6SizeOfEv:
    xor eax, eax
    ret

// mmBuildingInstance::GetClass()
.globl _ZN18mmBuildingInstance8GetClassEv
.weak _ZN18mmBuildingInstance8GetClassEv
.type _ZN18mmBuildingInstance8GetClassEv, @function
_ZN18mmBuildingInstance8GetClassEv:
    xor eax, eax
    ret

// mmBuildingInstance::GetScale()
.globl _ZN18mmBuildingInstance8GetScaleEv
.weak _ZN18mmBuildingInstance8GetScaleEv
.type _ZN18mmBuildingInstance8GetScaleEv, @function
_ZN18mmBuildingInstance8GetScaleEv:
    xor eax, eax
    ret

// mmWaypointInstance::ComputeLod(float, float)
.globl _ZN18mmWaypointInstance10ComputeLodEff
.weak _ZN18mmWaypointInstance10ComputeLodEff
.type _ZN18mmWaypointInstance10ComputeLodEff, @function
_ZN18mmWaypointInstance10ComputeLodEff:
    xor eax, eax
    ret

// mmWaypointInstance::Draw(int)
.globl _ZN18mmWaypointInstance4DrawEi
.weak _ZN18mmWaypointInstance4DrawEi
.type _ZN18mmWaypointInstance4DrawEi, @function
_ZN18mmWaypointInstance4DrawEi:
    xor eax, eax
    ret

// mmWaypointInstance::GetClass()
.globl _ZN18mmWaypointInstance8GetClassEv
.weak _ZN18mmWaypointInstance8GetClassEv
.type _ZN18mmWaypointInstance8GetClassEv, @function
_ZN18mmWaypointInstance8GetClassEv:
    xor eax, eax
    ret

// mmWaypointInstance::GetScale()
.globl _ZN18mmWaypointInstance8GetScaleEv
.weak _ZN18mmWaypointInstance8GetScaleEv
.type _ZN18mmWaypointInstance8GetScaleEv, @function
_ZN18mmWaypointInstance8GetScaleEv:
    xor eax, eax
    ret

// mmBangerDataManager::AddBangerDataEntry(char const*, char const*)
.globl _ZN19mmBangerDataManager18AddBangerDataEntryEPKcS1_
.weak _ZN19mmBangerDataManager18AddBangerDataEntryEPKcS1_
.type _ZN19mmBangerDataManager18AddBangerDataEntryEPKcS1_, @function
_ZN19mmBangerDataManager18AddBangerDataEntryEPKcS1_:
    xor eax, eax
    ret

// mmDofBangerInstance::FromMatrix(Matrix34 const&)
.globl _ZN19mmDofBangerInstance10FromMatrixERK8Matrix34
.weak _ZN19mmDofBangerInstance10FromMatrixERK8Matrix34
.type _ZN19mmDofBangerInstance10FromMatrixERK8Matrix34, @function
_ZN19mmDofBangerInstance10FromMatrixERK8Matrix34:
    xor eax, eax
    ret

// mmDofBangerInstance::GetPos()
.globl _ZN19mmDofBangerInstance6GetPosEv
.weak _ZN19mmDofBangerInstance6GetPosEv
.type _ZN19mmDofBangerInstance6GetPosEv, @function
_ZN19mmDofBangerInstance6GetPosEv:
    xor eax, eax
    ret

// mmDofBangerInstance::SizeOf()
.globl _ZN19mmDofBangerInstance6SizeOfEv
.weak _ZN19mmDofBangerInstance6SizeOfEv
.type _ZN19mmDofBangerInstance6SizeOfEv, @function
_ZN19mmDofBangerInstance6SizeOfEv:
    xor eax, eax
    ret

// mmDofBangerInstance::ToMatrix(Matrix34&)
.globl _ZN19mmDofBangerInstance8ToMatrixER8Matrix34
.weak _ZN19mmDofBangerInstance8ToMatrixER8Matrix34
.type _ZN19mmDofBangerInstance8ToMatrixER8Matrix34, @function
_ZN19mmDofBangerInstance8ToMatrixER8Matrix34:
    xor eax, eax
    ret

// mmHitBangerInstance::Draw(int)
.globl _ZN19mmHitBangerInstance4DrawEi
.weak _ZN19mmHitBangerInstance4DrawEi
.type _ZN19mmHitBangerInstance4DrawEi, @function
_ZN19mmHitBangerInstance4DrawEi:
    xor eax, eax
    ret

// aiPedestrianInstance::ComputeLod(float, float)
.globl _ZN20aiPedestrianInstance10ComputeLodEff
.weak _ZN20aiPedestrianInstance10ComputeLodEff
.type _ZN20aiPedestrianInstance10ComputeLodEff, @function
_ZN20aiPedestrianInstance10ComputeLodEff:
    xor eax, eax
    ret

// aiPedestrianInstance::DrawShadow()
.globl _ZN20aiPedestrianInstance10DrawShadowEv
.weak _ZN20aiPedestrianInstance10DrawShadowEv
.type _ZN20aiPedestrianInstance10DrawShadowEv, @function
_ZN20aiPedestrianInstance10DrawShadowEv:
    xor eax, eax
    ret

// aiPedestrianInstance::FromMatrix(Matrix34 const&)
.globl _ZN20aiPedestrianInstance10FromMatrixERK8Matrix34
.weak _ZN20aiPedestrianInstance10FromMatrixERK8Matrix34
.type _ZN20aiPedestrianInstance10FromMatrixERK8Matrix34, @function
_ZN20aiPedestrianInstance10FromMatrixERK8Matrix34:
    xor eax, eax
    ret

// aiPedestrianInstance::Draw(int)
.globl _ZN20aiPedestrianInstance4DrawEi
.weak _ZN20aiPedestrianInstance4DrawEi
.type _ZN20aiPedestrianInstance4DrawEi, @function
_ZN20aiPedestrianInstance4DrawEi:
    xor eax, eax
    ret

// aiPedestrianInstance::GetPos()
.globl _ZN20aiPedestrianInstance6GetPosEv
.weak _ZN20aiPedestrianInstance6GetPosEv
.type _ZN20aiPedestrianInstance6GetPosEv, @function
_ZN20aiPedestrianInstance6GetPosEv:
    xor eax, eax
    ret

// aiPedestrianInstance::ToMatrix(Matrix34&)
.globl _ZN20aiPedestrianInstance8ToMatrixER8Matrix34
.weak _ZN20aiPedestrianInstance8ToMatrixER8Matrix34
.type _ZN20aiPedestrianInstance8ToMatrixER8Matrix34, @function
_ZN20aiPedestrianInstance8ToMatrixER8Matrix34:
    xor eax, eax
    ret

// mmUnhitBangerInstance::InitBreakables(char const*, char const*, mmBangerData*)
.globl _ZN21mmUnhitBangerInstance14InitBreakablesEPKcS1_P12mmBangerData
.weak _ZN21mmUnhitBangerInstance14InitBreakablesEPKcS1_P12mmBangerData
.type _ZN21mmUnhitBangerInstance14InitBreakablesEPKcS1_P12mmBangerData, @function
_ZN21mmUnhitBangerInstance14InitBreakablesEPKcS1_P12mmBangerData:
    xor eax, eax
    ret

// mmUnhitBangerInstance::Reset()
.globl _ZN21mmUnhitBangerInstance5ResetEv
.weak _ZN21mmUnhitBangerInstance5ResetEv
.type _ZN21mmUnhitBangerInstance5ResetEv, @function
_ZN21mmUnhitBangerInstance5ResetEv:
    xor eax, eax
    ret

// Bank::AddToggle(char const*, bool*, Callback)
.globl _ZN4Bank9AddToggleEPKcPb8Callback
.weak _ZN4Bank9AddToggleEPKcPb8Callback
.type _ZN4Bank9AddToggleEPKcPb8Callback, @function
_ZN4Bank9AddToggleEPKcPb8Callback:
    xor eax, eax
    ret

// RDLP::RDLP(agiPipeline*)
.globl _ZN4RDLPC1EP11agiPipeline
.weak _ZN4RDLPC1EP11agiPipeline
.type _ZN4RDLPC1EP11agiPipeline, @function
_ZN4RDLPC1EP11agiPipeline:
    xor eax, eax
    ret

// aiMap::AllwaysRed()
.globl _ZN5aiMap10AllwaysRedEv
.weak _ZN5aiMap10AllwaysRedEv
.type _ZN5aiMap10AllwaysRedEv, @function
_ZN5aiMap10AllwaysRedEv:
    xor eax, eax
    ret

// aiMap::AllwaysGreen()
.globl _ZN5aiMap12AllwaysGreenEv
.weak _ZN5aiMap12AllwaysGreenEv
.type _ZN5aiMap12AllwaysGreenEv, @function
_ZN5aiMap12AllwaysGreenEv:
    xor eax, eax
    ret

// aiMap::DrawAppRoads()
.globl _ZN5aiMap12DrawAppRoadsEv
.weak _ZN5aiMap12DrawAppRoadsEv
.type _ZN5aiMap12DrawAppRoadsEv, @function
_ZN5aiMap12DrawAppRoadsEv:
    xor eax, eax
    ret

// aiMap::ChooseNextFreewayLink(aiRailSet*)
.globl _ZN5aiMap21ChooseNextFreewayLinkEP9aiRailSet
.weak _ZN5aiMap21ChooseNextFreewayLinkEP9aiRailSet
.type _ZN5aiMap21ChooseNextFreewayLinkEP9aiRailSet, @function
_ZN5aiMap21ChooseNextFreewayLinkEP9aiRailSet:
    xor eax, eax
    ret

// aiMap::ChooseNextStraightLink(aiRailSet*)
.globl _ZN5aiMap22ChooseNextStraightLinkEP9aiRailSet
.weak _ZN5aiMap22ChooseNextStraightLinkEP9aiRailSet
.type _ZN5aiMap22ChooseNextStraightLinkEP9aiRailSet, @function
_ZN5aiMap22ChooseNextStraightLinkEP9aiRailSet:
    xor eax, eax
    ret

// aiMap::DrawNextVisibleAmbient()
.globl _ZN5aiMap22DrawNextVisibleAmbientEv
.weak _ZN5aiMap22DrawNextVisibleAmbientEv
.type _ZN5aiMap22DrawNextVisibleAmbientEv, @function
_ZN5aiMap22DrawNextVisibleAmbientEv:
    xor eax, eax
    ret

// aiMap::DetermineOppMapComponent(Matrix34&, aiRailSet*, short*, short*, float*, float*, short*, float*, float, short, short)
.globl _ZN5aiMap24DetermineOppMapComponentER8Matrix34P9aiRailSetPsS4_PfS5_S4_S5_fss
.weak _ZN5aiMap24DetermineOppMapComponentER8Matrix34P9aiRailSetPsS4_PfS5_S4_S5_fss
.type _ZN5aiMap24DetermineOppMapComponentER8Matrix34P9aiRailSetPsS4_PfS5_S4_S5_fss, @function
_ZN5aiMap24DetermineOppMapComponentER8Matrix34P9aiRailSetPsS4_PfS5_S4_S5_fss:
    xor eax, eax
    ret

// aiMap::ChooseNextLeftStraightLink(aiRailSet*)
.globl _ZN5aiMap26ChooseNextLeftStraightLinkEP9aiRailSet
.weak _ZN5aiMap26ChooseNextLeftStraightLinkEP9aiRailSet
.type _ZN5aiMap26ChooseNextLeftStraightLinkEP9aiRailSet, @function
_ZN5aiMap26ChooseNextLeftStraightLinkEP9aiRailSet:
    xor eax, eax
    ret

// aiMap::ChooseNextRightStraightLink(aiRailSet*)
.globl _ZN5aiMap27ChooseNextRightStraightLinkEP9aiRailSet
.weak _ZN5aiMap27ChooseNextRightStraightLinkEP9aiRailSet
.type _ZN5aiMap27ChooseNextRightStraightLinkEP9aiRailSet, @function
_ZN5aiMap27ChooseNextRightStraightLinkEP9aiRailSet:
    xor eax, eax
    ret

// aiMap::ChooseNextRightStraightFreewayLink(aiRailSet*)
.globl _ZN5aiMap34ChooseNextRightStraightFreewayLinkEP9aiRailSet
.weak _ZN5aiMap34ChooseNextRightStraightFreewayLinkEP9aiRailSet
.type _ZN5aiMap34ChooseNextRightStraightFreewayLinkEP9aiRailSet, @function
_ZN5aiMap34ChooseNextRightStraightFreewayLinkEP9aiRailSet:
    xor eax, eax
    ret

// aiMap::Cull()
.globl _ZN5aiMap4CullEv
.weak _ZN5aiMap4CullEv
.type _ZN5aiMap4CullEv, @function
_ZN5aiMap4CullEv:
    xor eax, eax
    ret

// aiMap::Init(char*, char*, char*, mmCar*)
.globl _ZN5aiMap4InitEPcS0_S0_P5mmCar
.weak _ZN5aiMap4InitEPcS0_S0_P5mmCar
.type _ZN5aiMap4InitEPcS0_S0_P5mmCar, @function
_ZN5aiMap4InitEPcS0_S0_P5mmCar:
    xor eax, eax
    ret

// aiMap::Clean()
.globl _ZN5aiMap5CleanEv
.weak _ZN5aiMap5CleanEv
.type _ZN5aiMap5CleanEv, @function
_ZN5aiMap5CleanEv:
    xor eax, eax
    ret

// aiMap::Reset()
.globl _ZN5aiMap5ResetEv
.weak _ZN5aiMap5ResetEv
.type _ZN5aiMap5ResetEv, @function
_ZN5aiMap5ResetEv:
    xor eax, eax
    ret

// aiMap::Update()
.globl _ZN5aiMap6UpdateEv
.weak _ZN5aiMap6UpdateEv
.type _ZN5aiMap6UpdateEv, @function
_ZN5aiMap6UpdateEv:
    xor eax, eax
    ret

// aiMap::GetClass()
.globl _ZN5aiMap8GetClassEv
.weak _ZN5aiMap8GetClassEv
.type _ZN5aiMap8GetClassEv, @function
_ZN5aiMap8GetClassEv:
    xor eax, eax
    ret

// mmCar::Init(char const*, int, int)
.globl _ZN5mmCar4InitEPKcii
.weak _ZN5mmCar4InitEPKcii
.type _ZN5mmCar4InitEPKcii, @function
_ZN5mmCar4InitEPKcii:
    xor eax, eax
    ret

// mmHUD::SetMessage(LocString*, float, bool)
.globl _ZN5mmHUD10SetMessageEP9LocStringfb
.weak _ZN5mmHUD10SetMessageEP9LocStringfb
.type _ZN5mmHUD10SetMessageEP9LocStringfb, @function
_ZN5mmHUD10SetMessageEP9LocStringfb:
    xor eax, eax
    ret

// mmHUD::StopTimers()
.globl _ZN5mmHUD10StopTimersEv
.weak _ZN5mmHUD10StopTimersEv
.type _ZN5mmHUD10StopTimersEv, @function
_ZN5mmHUD10StopTimersEv:
    xor eax, eax
    ret

// mmHUD::ActivateDash()
.globl _ZN5mmHUD12ActivateDashEv
.weak _ZN5mmHUD12ActivateDashEv
.type _ZN5mmHUD12ActivateDashEv, @function
_ZN5mmHUD12ActivateDashEv:
    xor eax, eax
    ret

// mmHUD::IsDashActive()
.globl _ZN5mmHUD12IsDashActiveEv
.weak _ZN5mmHUD12IsDashActiveEv
.type _ZN5mmHUD12IsDashActiveEv, @function
_ZN5mmHUD12IsDashActiveEv:
    xor eax, eax
    ret

// mmHUD::DeactivateDash()
.globl _ZN5mmHUD14DeactivateDashEv
.weak _ZN5mmHUD14DeactivateDashEv
.type _ZN5mmHUD14DeactivateDashEv, @function
_ZN5mmHUD14DeactivateDashEv:
    xor eax, eax
    ret

// mmHUD::PostChatMessage(char const*)
.globl _ZN5mmHUD15PostChatMessageEPKc
.weak _ZN5mmHUD15PostChatMessageEPKc
.type _ZN5mmHUD15PostChatMessageEPKc, @function
_ZN5mmHUD15PostChatMessageEPKc:
    xor eax, eax
    ret

// mmHUD::ToggleExternalView()
.globl _ZN5mmHUD18ToggleExternalViewEv
.weak _ZN5mmHUD18ToggleExternalViewEv
.type _ZN5mmHUD18ToggleExternalViewEv, @function
_ZN5mmHUD18ToggleExternalViewEv:
    xor eax, eax
    ret

// mmHUD::Enable()
.globl _ZN5mmHUD6EnableEv
.weak _ZN5mmHUD6EnableEv
.type _ZN5mmHUD6EnableEv, @function
_ZN5mmHUD6EnableEv:
    xor eax, eax
    ret

// mmHUD::GetPosHdg(Vector4&)
.globl _ZN5mmHUD9GetPosHdgER7Vector4
.weak _ZN5mmHUD9GetPosHdgER7Vector4
.type _ZN5mmHUD9GetPosHdgER7Vector4, @function
_ZN5mmHUD9GetPosHdgER7Vector4:
    xor eax, eax
    ret

// mmHUD::~mmHUD()
.globl _ZN5mmHUDD1Ev
.weak _ZN5mmHUDD1Ev
.type _ZN5mmHUDD1Ev, @function
_ZN5mmHUDD1Ev:
    xor eax, eax
    ret

// mmSky::Init(char const*)
.globl _ZN5mmSky4InitEPKc
.weak _ZN5mmSky4InitEPKc
.type _ZN5mmSky4InitEPKc, @function
_ZN5mmSky4InitEPKc:
    xor eax, eax
    ret

// Card2D::SetDimensions(float, float, float, float)
.globl _ZN6Card2D13SetDimensionsEffff
.weak _ZN6Card2D13SetDimensionsEffff
.type _ZN6Card2D13SetDimensionsEffff, @function
_ZN6Card2D13SetDimensionsEffff:
    xor eax, eax
    ret

// Card2D::Cull()
.globl _ZN6Card2D4CullEv
.weak _ZN6Card2D4CullEv
.type _ZN6Card2D4CullEv, @function
_ZN6Card2D4CullEv:
    ret

// Card2D::Update()
.globl _ZN6Card2D6UpdateEv
.weak _ZN6Card2D6UpdateEv
.type _ZN6Card2D6UpdateEv, @function
_ZN6Card2D6UpdateEv:
    ret

// Card2D::AddWidgets(Bank*)
.globl _ZN6Card2D10AddWidgetsEP4Bank
.weak _ZN6Card2D10AddWidgetsEP4Bank
.type _ZN6Card2D10AddWidgetsEP4Bank, @function
_ZN6Card2D10AddWidgetsEP4Bank:
    ret

// MArray::AddMenuData(int, Vector4&, char*)
.globl _ZN6MArray11AddMenuDataEiR7Vector4Pc
.weak _ZN6MArray11AddMenuDataEiR7Vector4Pc
.type _ZN6MArray11AddMenuDataEiR7Vector4Pc, @function
_ZN6MArray11AddMenuDataEiR7Vector4Pc:
    xor eax, eax
    ret

// UIMenu::AddHotSpot(int, char const*, float, float, float, float, Callback)
.globl _ZN6UIMenu10AddHotSpotEiPKcffff8Callback
.weak _ZN6UIMenu10AddHotSpotEiPKcffff8Callback
.type _ZN6UIMenu10AddHotSpotEiPKcffff8Callback, @function
_ZN6UIMenu10AddHotSpotEiPKcffff8Callback:
    xor eax, eax
    ret

// UIMenu::AddBMButton(int, char const*, float, float, int, Callback, int*, int, int, Callback)
.globl _ZN6UIMenu11AddBMButtonEiPKcffi8CallbackPiiiS2_
.weak _ZN6UIMenu11AddBMButtonEiPKcffi8CallbackPiiiS2_
.type _ZN6UIMenu11AddBMButtonEiPKcffi8CallbackPiiiS2_, @function
_ZN6UIMenu11AddBMButtonEiPKcffi8CallbackPiiiS2_:
    xor eax, eax
    ret

// UIMenu::SetSelected()
.globl _ZN6UIMenu11SetSelectedEv
.weak _ZN6UIMenu11SetSelectedEv
.type _ZN6UIMenu11SetSelectedEv, @function
_ZN6UIMenu11SetSelectedEv:
    xor eax, eax
    ret

// UIMenu::MouseHitCheck(int, float, float)
.globl _ZN6UIMenu13MouseHitCheckEiff
.weak _ZN6UIMenu13MouseHitCheckEiff
.type _ZN6UIMenu13MouseHitCheckEiff, @function
_ZN6UIMenu13MouseHitCheckEiff:
    xor eax, eax
    ret

// UIMenu::SetFocusWidget(int)
.globl _ZN6UIMenu14SetFocusWidgetEi
.weak _ZN6UIMenu14SetFocusWidgetEi
.type _ZN6UIMenu14SetFocusWidgetEi, @function
_ZN6UIMenu14SetFocusWidgetEi:
    xor eax, eax
    ret

// UIMenu::Update()
.globl _ZN6UIMenu6UpdateEv
.weak _ZN6UIMenu6UpdateEv
.type _ZN6UIMenu6UpdateEv, @function
_ZN6UIMenu6UpdateEv:
    xor eax, eax
    ret

// UIMenu::AddButton(int, LocString*, float, float, float, float, int, int, Callback)
.globl _ZN6UIMenu9AddButtonEiP9LocStringffffii8Callback
.weak _ZN6UIMenu9AddButtonEiP9LocStringffffii8Callback
.type _ZN6UIMenu9AddButtonEiP9LocStringffffii8Callback, @function
_ZN6UIMenu9AddButtonEiP9LocStringffffii8Callback:
    xor eax, eax
    ret

// UIMenu::SetBstate(int)
.globl _ZN6UIMenu9SetBstateEi
.weak _ZN6UIMenu9SetBstateEi
.type _ZN6UIMenu9SetBstateEi, @function
_ZN6UIMenu9SetBstateEi:
    xor eax, eax
    ret

// UIMenu::UIMenu(int)
.globl _ZN6UIMenuC2Ei
.weak _ZN6UIMenuC2Ei
.type _ZN6UIMenuC2Ei, @function
_ZN6UIMenuC2Ei:
    xor eax, eax
    ret

// UIMenu::~UIMenu()
.globl _ZN6UIMenuD2Ev
.weak _ZN6UIMenuD2Ev
.type _ZN6UIMenuD2Ev, @function
_ZN6UIMenuD2Ev:
    xor eax, eax
    ret

// aiPath::CenterLength(int, int)
.globl _ZN6aiPath12CenterLengthEii
.weak _ZN6aiPath12CenterLengthEii
.type _ZN6aiPath12CenterLengthEii, @function
_ZN6aiPath12CenterLengthEii:
    xor eax, eax
    ret

// aiPath::StopDestinationSources(bool)
.globl _ZN6aiPath22StopDestinationSourcesEb
.weak _ZN6aiPath22StopDestinationSourcesEb
.type _ZN6aiPath22StopDestinationSourcesEb, @function
_ZN6aiPath22StopDestinationSourcesEb:
    xor eax, eax
    ret

// aiPath::Index(Vector3&)
.globl _ZN6aiPath5IndexER7Vector3
.weak _ZN6aiPath5IndexER7Vector3
.type _ZN6aiPath5IndexER7Vector3, @function
_ZN6aiPath5IndexER7Vector3:
    xor eax, eax
    ret

// asLamp::AddWidgets(Bank*)
.globl _ZN6asLamp10AddWidgetsEP4Bank
.weak _ZN6asLamp10AddWidgetsEP4Bank
.type _ZN6asLamp10AddWidgetsEP4Bank, @function
_ZN6asLamp10AddWidgetsEP4Bank:
    xor eax, eax
    ret

// asLamp::SetDistant()
.globl _ZN6asLamp10SetDistantEv
.weak _ZN6asLamp10SetDistantEv
.type _ZN6asLamp10SetDistantEv, @function
_ZN6asLamp10SetDistantEv:
    xor eax, eax
    ret

// asLamp::Cull()
.globl _ZN6asLamp4CullEv
.weak _ZN6asLamp4CullEv
.type _ZN6asLamp4CullEv, @function
_ZN6asLamp4CullEv:
    xor eax, eax
    ret

// asLamp::Update()
.globl _ZN6asLamp6UpdateEv
.weak _ZN6asLamp6UpdateEv
.type _ZN6asLamp6UpdateEv, @function
_ZN6asLamp6UpdateEv:
    xor eax, eax
    ret

// asLamp::GetClass()
.globl _ZN6asLamp8GetClassEv
.weak _ZN6asLamp8GetClassEv
.type _ZN6asLamp8GetClassEv, @function
_ZN6asLamp8GetClassEv:
    xor eax, eax
    ret

// asLamp::asLamp()
.globl _ZN6asLampC1Ev
.weak _ZN6asLampC1Ev
.type _ZN6asLampC1Ev, @function
_ZN6asLampC1Ev:
    xor eax, eax
    ret

// mmGame::AddWidgets(Bank*)
.globl _ZN6mmGame10AddWidgetsEP4Bank
.weak _ZN6mmGame10AddWidgetsEP4Bank
.type _ZN6mmGame10AddWidgetsEP4Bank, @function
_ZN6mmGame10AddWidgetsEP4Bank:
    xor eax, eax
    ret

// mmGame::GetCDTrack(short)
.globl _ZN6mmGame10GetCDTrackEs
.weak _ZN6mmGame10GetCDTrackEs
.type _ZN6mmGame10GetCDTrackEs, @function
_ZN6mmGame10GetCDTrackEs:
    xor eax, eax
    ret

// mmGame::SetIconsState()
.globl _ZN6mmGame13SetIconsStateEv
.weak _ZN6mmGame13SetIconsStateEv
.type _ZN6mmGame13SetIconsStateEv, @function
_ZN6mmGame13SetIconsStateEv:
    xor eax, eax
    ret

// mmGame::PlayerSetState()
.globl _ZN6mmGame14PlayerSetStateEv
.weak _ZN6mmGame14PlayerSetStateEv
.type _ZN6mmGame14PlayerSetStateEv, @function
_ZN6mmGame14PlayerSetStateEv:
    xor eax, eax
    ret

// mmGame::HitWaterHandler()
.globl _ZN6mmGame15HitWaterHandlerEv
.weak _ZN6mmGame15HitWaterHandlerEv
.type _ZN6mmGame15HitWaterHandlerEv, @function
_ZN6mmGame15HitWaterHandlerEv:
    xor eax, eax
    ret

// mmGame::InitGameStrings()
.globl _ZN6mmGame15InitGameStringsEv
.weak _ZN6mmGame15InitGameStringsEv
.type _ZN6mmGame15InitGameStringsEv, @function
_ZN6mmGame15InitGameStringsEv:
    xor eax, eax
    ret

// mmGame::InitOtherPlayers()
.globl _ZN6mmGame16InitOtherPlayersEv
.weak _ZN6mmGame16InitOtherPlayersEv
.type _ZN6mmGame16InitOtherPlayersEv, @function
_ZN6mmGame16InitOtherPlayersEv:
    xor eax, eax
    ret

// mmGame::DropThruCityHandler()
.globl _ZN6mmGame19DropThruCityHandlerEv
.weak _ZN6mmGame19DropThruCityHandlerEv
.type _ZN6mmGame19DropThruCityHandlerEv, @function
_ZN6mmGame19DropThruCityHandlerEv:
    xor eax, eax
    ret

// mmGame::Reset()
.globl _ZN6mmGame5ResetEv
.weak _ZN6mmGame5ResetEv
.type _ZN6mmGame5ResetEv, @function
_ZN6mmGame5ResetEv:
    xor eax, eax
    ret

// mmGame::Update()
.globl _ZN6mmGame6UpdateEv
.weak _ZN6mmGame6UpdateEv
.type _ZN6mmGame6UpdateEv, @function
_ZN6mmGame6UpdateEv:
    xor eax, eax
    ret

// mmGame::GetClass()
.globl _ZN6mmGame8GetClassEv
.weak _ZN6mmGame8GetClassEv
.type _ZN6mmGame8GetClassEv, @function
_ZN6mmGame8GetClassEv:
    xor eax, eax
    ret

// mmSkid::Draw(int)
.globl _ZN6mmSkid4DrawEi
.weak _ZN6mmSkid4DrawEi
.type _ZN6mmSkid4DrawEi, @function
_ZN6mmSkid4DrawEi:
    xor eax, eax
    ret

// mmSkid::GetPos()
.globl _ZN6mmSkid6GetPosEv
.weak _ZN6mmSkid6GetPosEv
.type _ZN6mmSkid6GetPosEv, @function
_ZN6mmSkid6GetPosEv:
    xor eax, eax
    ret

// mmSkid::GetClass()
.globl _ZN6mmSkid8GetClassEv
.weak _ZN6mmSkid8GetClassEv
.type _ZN6mmSkid8GetClassEv, @function
_ZN6mmSkid8GetClassEv:
    xor eax, eax
    ret

// mmSkid::ToMatrix(Matrix34&)
.globl _ZN6mmSkid8ToMatrixER8Matrix34
.weak _ZN6mmSkid8ToMatrixER8Matrix34
.type _ZN6mmSkid8ToMatrixER8Matrix34, @function
_ZN6mmSkid8ToMatrixER8Matrix34:
    xor eax, eax
    ret

// string::SaveName(string const&, int, string const&, string const&)
.globl _ZN6string8SaveNameERKS_iS1_S1_
.weak _ZN6string8SaveNameERKS_iS1_S1_
.type _ZN6string8SaveNameERKS_iS1_S1_, @function
_ZN6string8SaveNameERKS_iS1_S1_:
    xor eax, eax
    ret

// string::operator=(char const*)
.globl _ZN6stringaSEPKc
.weak _ZN6stringaSEPKc
.type _ZN6stringaSEPKc, @function
_ZN6stringaSEPKc:
    xor eax, eax
    ret

// string::operator+=(char const*)
.globl _ZN6stringpLEPKc
.weak _ZN6stringpLEPKc
.type _ZN6stringpLEPKc, @function
_ZN6stringpLEPKc:
    xor eax, eax
    ret

// AudHead::SetDoppler(float)
.globl _ZN7AudHead10SetDopplerEf
.weak _ZN7AudHead10SetDopplerEf
.type _ZN7AudHead10SetDopplerEf, @function
_ZN7AudHead10SetDopplerEf:
    xor eax, eax
    ret

// AudHead::SetRolloff(float)
.globl _ZN7AudHead10SetRolloffEf
.weak _ZN7AudHead10SetRolloffEf
.type _ZN7AudHead10SetRolloffEf, @function
_ZN7AudHead10SetRolloffEf:
    xor eax, eax
    ret

// AudHead::Init()
.globl _ZN7AudHead4InitEv
.weak _ZN7AudHead4InitEv
.type _ZN7AudHead4InitEv, @function
_ZN7AudHead4InitEv:
    xor eax, eax
    ret

// AudHead::AudHead(Matrix34*)
.globl _ZN7AudHeadC1EP8Matrix34
.weak _ZN7AudHeadC1EP8Matrix34
.type _ZN7AudHeadC1EP8Matrix34, @function
_ZN7AudHeadC1EP8Matrix34:
    xor eax, eax
    ret

// aiStuck::Update()
.globl _ZN7aiStuck6UpdateEv
.weak _ZN7aiStuck6UpdateEv
.type _ZN7aiStuck6UpdateEv, @function
_ZN7aiStuck6UpdateEv:
    xor eax, eax
    ret

// asBound::asBound()
.globl _ZN7asBoundC1Ev
.weak _ZN7asBoundC1Ev
.type _ZN7asBoundC1Ev, @function
_ZN7asBoundC1Ev:
    xor eax, eax
    ret

// mmArrow::Update()
.globl _ZN7mmArrow6UpdateEv
.weak _ZN7mmArrow6UpdateEv
.type _ZN7mmArrow6UpdateEv, @function
_ZN7mmArrow6UpdateEv:
    xor eax, eax
    ret

// mmCRHUD::ActivateRosterGold(unsigned long)
.globl _ZN7mmCRHUD18ActivateRosterGoldEm
.weak _ZN7mmCRHUD18ActivateRosterGoldEm
.type _ZN7mmCRHUD18ActivateRosterGoldEm, @function
_ZN7mmCRHUD18ActivateRosterGoldEm:
    xor eax, eax
    ret

// mmIODev::Init(int, long)
.globl _ZN7mmIODev4InitEil
.weak _ZN7mmIODev4InitEil
.type _ZN7mmIODev4InitEil, @function
_ZN7mmIODev4InitEil:
    xor eax, eax
    ret

// mmIODev::Assign(int, int, int)
.globl _ZN7mmIODev6AssignEiii
.weak _ZN7mmIODev6AssignEiii
.type _ZN7mmIODev6AssignEiii, @function
_ZN7mmIODev6AssignEiii:
    xor eax, eax
    ret

// mmIcons::RegisterOpponents(OppIconInfo*, int, void*)
.globl _ZN7mmIcons17RegisterOpponentsEP11OppIconInfoiPv
.weak _ZN7mmIcons17RegisterOpponentsEP11OppIconInfoiPv
.type _ZN7mmIcons17RegisterOpponentsEP11OppIconInfoiPv, @function
_ZN7mmIcons17RegisterOpponentsEP11OppIconInfoiPv:
    xor eax, eax
    ret

// mmIcons::Init(Matrix34*, float, float)
.globl _ZN7mmIcons4InitEP8Matrix34ff
.weak _ZN7mmIcons4InitEP8Matrix34ff
.type _ZN7mmIcons4InitEP8Matrix34ff, @function
_ZN7mmIcons4InitEP8Matrix34ff:
    xor eax, eax
    ret

// mmIcons::mmIcons()
.globl _ZN7mmIconsC1Ev
.weak _ZN7mmIconsC1Ev
.type _ZN7mmIconsC1Ev, @function
_ZN7mmIconsC1Ev:
    xor eax, eax
    ret

// mmIcons::~mmIcons()
.globl _ZN7mmIconsD1Ev
.weak _ZN7mmIconsD1Ev
.type _ZN7mmIconsD1Ev, @function
_ZN7mmIconsD1Ev:
    xor eax, eax
    ret

// mmInput::PollStates()
.globl _ZN7mmInput10PollStatesEv
.weak _ZN7mmInput10PollStatesEv
.type _ZN7mmInput10PollStatesEv, @function
_ZN7mmInput10PollStatesEv:
    xor eax, eax
    ret

// mmInput::FFSetValues(int, float, float)
.globl _ZN7mmInput11FFSetValuesEiff
.weak _ZN7mmInput11FFSetValuesEiff
.type _ZN7mmInput11FFSetValuesEiff, @function
_ZN7mmInput11FFSetValuesEiff:
    xor eax, eax
    ret

// mmInput::GetSteering()
.globl _ZN7mmInput11GetSteeringEv
.weak _ZN7mmInput11GetSteeringEv
.type _ZN7mmInput11GetSteeringEv, @function
_ZN7mmInput11GetSteeringEv:
    xor eax, eax
    ret

// mmInput::GetThrottle()
.globl _ZN7mmInput11GetThrottleEv
.weak _ZN7mmInput11GetThrottleEv
.type _ZN7mmInput11GetThrottleEv, @function
_ZN7mmInput11GetThrottleEv:
    xor eax, eax
    ret

// mmInput::AttachToPipe()
.globl _ZN7mmInput12AttachToPipeEv
.weak _ZN7mmInput12AttachToPipeEv
.type _ZN7mmInput12AttachToPipeEv, @function
_ZN7mmInput12AttachToPipeEv:
    xor eax, eax
    ret

// mmInput::ProcessStates()
.globl _ZN7mmInput13ProcessStatesEv
.weak _ZN7mmInput13ProcessStatesEv
.type _ZN7mmInput13ProcessStatesEv, @function
_ZN7mmInput13ProcessStatesEv:
    xor eax, eax
    ret

// mmInput::GetThrottleVal()
.globl _ZN7mmInput14GetThrottleValEv
.weak _ZN7mmInput14GetThrottleValEv
.type _ZN7mmInput14GetThrottleValEv, @function
_ZN7mmInput14GetThrottleValEv:
    xor eax, eax
    ret

// mmInput::DeviceConnected()
.globl _ZN7mmInput15DeviceConnectedEv
.weak _ZN7mmInput15DeviceConnectedEv
.type _ZN7mmInput15DeviceConnectedEv, @function
_ZN7mmInput15DeviceConnectedEv:
    xor eax, eax
    ret

// mmInput::PutEventInQueue(long)
.globl _ZN7mmInput15PutEventInQueueEl
.weak _ZN7mmInput15PutEventInQueueEl
.type _ZN7mmInput15PutEventInQueueEl, @function
_ZN7mmInput15PutEventInQueueEl:
    xor eax, eax
    ret

// mmInput::ToggleFFEnabled(int)
.globl _ZN7mmInput15ToggleFFEnabledEi
.weak _ZN7mmInput15ToggleFFEnabledEi
.type _ZN7mmInput15ToggleFFEnabledEi, @function
_ZN7mmInput15ToggleFFEnabledEi:
    xor eax, eax
    ret

// mmInput::ProcessJoyEvents()
.globl _ZN7mmInput16ProcessJoyEventsEv
.weak _ZN7mmInput16ProcessJoyEventsEv
.type _ZN7mmInput16ProcessJoyEventsEv, @function
_ZN7mmInput16ProcessJoyEventsEv:
    xor eax, eax
    ret

// mmInput::JoystickHasCoolie()
.globl _ZN7mmInput17JoystickHasCoolieEv
.weak _ZN7mmInput17JoystickHasCoolieEv
.type _ZN7mmInput17JoystickHasCoolieEv, @function
_ZN7mmInput17JoystickHasCoolieEv:
    xor eax, eax
    ret

// mmInput::ClearEventHitFlags()
.globl _ZN7mmInput18ClearEventHitFlagsEv
.weak _ZN7mmInput18ClearEventHitFlagsEv
.type _ZN7mmInput18ClearEventHitFlagsEv, @function
_ZN7mmInput18ClearEventHitFlagsEv:
    xor eax, eax
    ret

// mmInput::Init(int)
.globl _ZN7mmInput4InitEi
.weak _ZN7mmInput4InitEi
.type _ZN7mmInput4InitEi, @function
_ZN7mmInput4InitEi:
    xor eax, eax
    ret

// mmInput::Reset()
.globl _ZN7mmInput5ResetEv
.weak _ZN7mmInput5ResetEv
.type _ZN7mmInput5ResetEv, @function
_ZN7mmInput5ResetEv:
    xor eax, eax
    ret

// mmInput::FFPlay(int)
.globl _ZN7mmInput6FFPlayEi
.weak _ZN7mmInput6FFPlayEi
.type _ZN7mmInput6FFPlayEi, @function
_ZN7mmInput6FFPlayEi:
    xor eax, eax
    ret

// mmInput::DoingFF()
.globl _ZN7mmInput7DoingFFEv
.weak _ZN7mmInput7DoingFFEv
.type _ZN7mmInput7DoingFFEv, @function
_ZN7mmInput7DoingFFEv:
    xor eax, eax
    ret

// mmInput::PopEvent(int*)
.globl _ZN7mmInput8PopEventEPi
.weak _ZN7mmInput8PopEventEPi
.type _ZN7mmInput8PopEventEPi, @function
_ZN7mmInput8PopEventEPi:
    xor eax, eax
    ret

// mmInput::GetCamPan()
.globl _ZN7mmInput9GetCamPanEv
.weak _ZN7mmInput9GetCamPanEv
.type _ZN7mmInput9GetCamPanEv, @function
_ZN7mmInput9GetCamPanEv:
    xor eax, eax
    ret

// mmInput::mmInput()
.globl _ZN7mmInputC1Ev
.weak _ZN7mmInputC1Ev
.type _ZN7mmInputC1Ev, @function
_ZN7mmInputC1Ev:
    xor eax, eax
    ret

// mmInput::~mmInput()
.globl _ZN7mmInputD0Ev
.weak _ZN7mmInputD0Ev
.type _ZN7mmInputD0Ev, @function
_ZN7mmInputD0Ev:
    xor eax, eax
    ret

// mmJaxis::NormalizePOV(unsigned long)
.globl _ZN7mmJaxis12NormalizePOVEm
.weak _ZN7mmJaxis12NormalizePOVEm
.type _ZN7mmJaxis12NormalizePOVEm, @function
_ZN7mmJaxis12NormalizePOVEm:
    xor eax, eax
    ret

// mmJaxis::Capture()
.globl _ZN7mmJaxis7CaptureEv
.weak _ZN7mmJaxis7CaptureEv
.type _ZN7mmJaxis7CaptureEv, @function
_ZN7mmJaxis7CaptureEv:
    xor eax, eax
    ret

// mmJaxis::Normalize(float)
.globl _ZN7mmJaxis9NormalizeEf
.weak _ZN7mmJaxis9NormalizeEf
.type _ZN7mmJaxis9NormalizeEf, @function
_ZN7mmJaxis9NormalizeEf:
    xor eax, eax
    ret

// mmJaxis::mmJaxis()
.globl _ZN7mmJaxisC1Ev
.weak _ZN7mmJaxisC1Ev
.type _ZN7mmJaxisC1Ev, @function
_ZN7mmJaxisC1Ev:
    xor eax, eax
    ret

// mmPopup::ShowRoster()
.globl _ZN7mmPopup10ShowRosterEv
.weak _ZN7mmPopup10ShowRosterEv
.type _ZN7mmPopup10ShowRosterEv, @function
_ZN7mmPopup10ShowRosterEv:
    xor eax, eax
    ret

// mmPopup::ProcessChat()
.globl _ZN7mmPopup11ProcessChatEv
.weak _ZN7mmPopup11ProcessChatEv
.type _ZN7mmPopup11ProcessChatEv, @function
_ZN7mmPopup11ProcessChatEv:
    xor eax, eax
    ret

// mmPopup::ShowResults()
.globl _ZN7mmPopup11ShowResultsEv
.weak _ZN7mmPopup11ShowResultsEv
.type _ZN7mmPopup11ShowResultsEv, @function
_ZN7mmPopup11ShowResultsEv:
    xor eax, eax
    ret

// mmPopup::ProcessEscape(int)
.globl _ZN7mmPopup13ProcessEscapeEi
.weak _ZN7mmPopup13ProcessEscapeEi
.type _ZN7mmPopup13ProcessEscapeEi, @function
_ZN7mmPopup13ProcessEscapeEi:
    xor eax, eax
    ret

// mmPopup::ProcessKeymap(int)
.globl _ZN7mmPopup13ProcessKeymapEi
.weak _ZN7mmPopup13ProcessKeymapEi
.type _ZN7mmPopup13ProcessKeymapEi, @function
_ZN7mmPopup13ProcessKeymapEi:
    xor eax, eax
    ret

// mmPopup::RecordPosition()
.globl _ZN7mmPopup14RecordPositionEv
.weak _ZN7mmPopup14RecordPositionEv
.type _ZN7mmPopup14RecordPositionEv, @function
_ZN7mmPopup14RecordPositionEv:
    xor eax, eax
    ret

// mmPopup::Reset()
.globl _ZN7mmPopup5ResetEv
.weak _ZN7mmPopup5ResetEv
.type _ZN7mmPopup5ResetEv, @function
_ZN7mmPopup5ResetEv:
    xor eax, eax
    ret

// mmPopup::Update()
.globl _ZN7mmPopup6UpdateEv
.weak _ZN7mmPopup6UpdateEv
.type _ZN7mmPopup6UpdateEv, @function
_ZN7mmPopup6UpdateEv:
    xor eax, eax
    ret

// mmPopup::mmPopup(mmGame*, float, float, float, float)
.globl _ZN7mmPopupC1EP6mmGameffff
.weak _ZN7mmPopupC1EP6mmGameffff
.type _ZN7mmPopupC1EP6mmGameffff, @function
_ZN7mmPopupC1EP6mmGameffff:
    xor eax, eax
    ret

// mmShard::GetClass()
.globl _ZN7mmShard8GetClassEv
.weak _ZN7mmShard8GetClassEv
.type _ZN7mmShard8GetClassEv, @function
_ZN7mmShard8GetClassEv:
    xor eax, eax
    ret

// AudSound::Stop()
.globl _ZN8AudSound4StopEv
.weak _ZN8AudSound4StopEv
.type _ZN8AudSound4StopEv, @function
_ZN8AudSound4StopEv:
    xor eax, eax
    ret

// AudSound::PlayOnce(float, float)
.globl _ZN8AudSound8PlayOnceEff
.weak _ZN8AudSound8PlayOnceEff
.type _ZN8AudSound8PlayOnceEff, @function
_ZN8AudSound8PlayOnceEff:
    xor eax, eax
    ret

// AudSound::IsPlaying(int)
.globl _ZN8AudSound9IsPlayingEi
.weak _ZN8AudSound9IsPlayingEi
.type _ZN8AudSound9IsPlayingEi, @function
_ZN8AudSound9IsPlayingEi:
    xor eax, eax
    ret

// AudSound::~AudSound()
.globl _ZN8AudSoundD0Ev
.weak _ZN8AudSoundD0Ev
.type _ZN8AudSoundD0Ev, @function
_ZN8AudSoundD0Ev:
    xor eax, eax
    ret

// DSGlobal::GetDeviceName(unsigned int)
.globl _ZN8DSGlobal13GetDeviceNameEj
.weak _ZN8DSGlobal13GetDeviceNameEj
.type _ZN8DSGlobal13GetDeviceNameEj, @function
_ZN8DSGlobal13GetDeviceNameEj:
    xor eax, eax
    ret

// DSGlobal::GetWaveDeviceID(unsigned int, unsigned int&)
.globl _ZN8DSGlobal15GetWaveDeviceIDEjRj
.weak _ZN8DSGlobal15GetWaveDeviceIDEjRj
.type _ZN8DSGlobal15GetWaveDeviceIDEjRj, @function
_ZN8DSGlobal15GetWaveDeviceIDEjRj:
    xor eax, eax
    ret

// Matrix34::FromEulers(Vector3 const&)
.globl _ZN8Matrix3410FromEulersERK7Vector3
.weak _ZN8Matrix3410FromEulersERK7Vector3
.type _ZN8Matrix3410FromEulersERK7Vector3, @function
_ZN8Matrix3410FromEulersERK7Vector3:
    xor eax, eax
    ret

// Matrix34::FastInverse(Matrix34 const&)
.globl _ZN8Matrix3411FastInverseERKS_
.weak _ZN8Matrix3411FastInverseERKS_
.type _ZN8Matrix3411FastInverseERKS_, @function
_ZN8Matrix3411FastInverseERKS_:
    xor eax, eax
    ret

// Matrix34::Dot(Matrix34 const&, Matrix34 const&)
.globl _ZN8Matrix343DotERKS_S1_
.weak _ZN8Matrix343DotERKS_S1_
.type _ZN8Matrix343DotERKS_S1_, @function
_ZN8Matrix343DotERKS_S1_:
    xor eax, eax
    ret

// Matrix34::Rotate(Vector3 const&, float)
.globl _ZN8Matrix346RotateERK7Vector3f
.weak _ZN8Matrix346RotateERK7Vector3f
.type _ZN8Matrix346RotateERK7Vector3f, @function
_ZN8Matrix346RotateERK7Vector3f:
    xor eax, eax
    ret

// Matrix34::Approach(Matrix34 const&, float, float, float)
.globl _ZN8Matrix348ApproachERKS_fff
.weak _ZN8Matrix348ApproachERKS_fff
.type _ZN8Matrix348ApproachERKS_fff, @function
_ZN8Matrix348ApproachERKS_fff:
    xor eax, eax
    ret

// Matrix34::PolarView(float, float, float, float)
.globl _ZN8Matrix349PolarViewEffff
.weak _ZN8Matrix349PolarViewEffff
.type _ZN8Matrix349PolarViewEffff, @function
_ZN8Matrix349PolarViewEffff:
    xor eax, eax
    ret

// Matrix34::RotateAbs(Vector3 const&, float)
.globl _ZN8Matrix349RotateAbsERK7Vector3f
.weak _ZN8Matrix349RotateAbsERK7Vector3f
.type _ZN8Matrix349RotateAbsERK7Vector3f, @function
_ZN8Matrix349RotateAbsERK7Vector3f:
    xor eax, eax
    ret

// Matrix44::Matrix44(Matrix34 const&)
.globl _ZN8Matrix44C1ERK8Matrix34
.weak _ZN8Matrix44C1ERK8Matrix34
.type _ZN8Matrix44C1ERK8Matrix34, @function
_ZN8Matrix44C1ERK8Matrix34:
    xor eax, eax
    ret

// Matrix44::Matrix44(Matrix44 const&)
.globl _ZN8Matrix44C1ERKS_
.weak _ZN8Matrix44C1ERKS_
.type _ZN8Matrix44C1ERKS_, @function
_ZN8Matrix44C1ERKS_:
    xor eax, eax
    ret

// asCamera::SetUnderlay(char const*)
.globl _ZN8asCamera11SetUnderlayEPKc
.weak _ZN8asCamera11SetUnderlayEPKc
.type _ZN8asCamera11SetUnderlayEPKc, @function
_ZN8asCamera11SetUnderlayEPKc:
    xor eax, eax
    ret

// asCamera::SetViewport(float, float, float, float, int)
.globl _ZN8asCamera11SetViewportEffffi
.weak _ZN8asCamera11SetViewportEffffi
.type _ZN8asCamera11SetViewportEffffi, @function
_ZN8asCamera11SetViewportEffffi:
    xor eax, eax
    ret

// asCamera::FadeIn(float, int)
.globl _ZN8asCamera6FadeInEfi
.weak _ZN8asCamera6FadeInEfi
.type _ZN8asCamera6FadeInEfi, @function
_ZN8asCamera6FadeInEfi:
    xor eax, eax
    ret

// asCamera::Update()
.globl _ZN8asCamera6UpdateEv
.weak _ZN8asCamera6UpdateEv
.type _ZN8asCamera6UpdateEv, @function
_ZN8asCamera6UpdateEv:
    xor eax, eax
    ret

// asCamera::DrawEnd()
.globl _ZN8asCamera7DrawEndEv
.weak _ZN8asCamera7DrawEndEv
.type _ZN8asCamera7DrawEndEv, @function
_ZN8asCamera7DrawEndEv:
    xor eax, eax
    ret

// asCamera::~asCamera()
.globl _ZN8asCameraD0Ev
.weak _ZN8asCameraD0Ev
.type _ZN8asCameraD0Ev, @function
_ZN8asCameraD0Ev:
    xor eax, eax
    ret

// asCamera::~asCamera()
.globl _ZN8asCameraD1Ev
.weak _ZN8asCameraD1Ev
.type _ZN8asCameraD1Ev, @function
_ZN8asCameraD1Ev:
    xor eax, eax
    ret

// mmCarSim::StartSiren()
.globl _ZN8mmCarSim10StartSirenEv
.weak _ZN8mmCarSim10StartSirenEv
.type _ZN8mmCarSim10StartSirenEv, @function
_ZN8mmCarSim10StartSirenEv:
    xor eax, eax
    ret

// mmCarSim::PlayImpactAudio(short, mmIntersection*, Vector3*)
.globl _ZN8mmCarSim15PlayImpactAudioEsP14mmIntersectionP7Vector3
.weak _ZN8mmCarSim15PlayImpactAudioEsP14mmIntersectionP7Vector3
.type _ZN8mmCarSim15PlayImpactAudioEsP14mmIntersectionP7Vector3, @function
_ZN8mmCarSim15PlayImpactAudioEsP14mmIntersectionP7Vector3:
    xor eax, eax
    ret

// mmCarSim::RemoveNetVehicleAudio()
.globl _ZN8mmCarSim21RemoveNetVehicleAudioEv
.weak _ZN8mmCarSim21RemoveNetVehicleAudioEv
.type _ZN8mmCarSim21RemoveNetVehicleAudioEv, @function
_ZN8mmCarSim21RemoveNetVehicleAudioEv:
    xor eax, eax
    ret

// mmCarSim::Reset()
.globl _ZN8mmCarSim5ResetEv
.weak _ZN8mmCarSim5ResetEv
.type _ZN8mmCarSim5ResetEv, @function
_ZN8mmCarSim5ResetEv:
    xor eax, eax
    ret

// mmCarSim::ReInit(char const*)
.globl _ZN8mmCarSim6ReInitEPKc
.weak _ZN8mmCarSim6ReInitEPKc
.type _ZN8mmCarSim6ReInitEPKc, @function
_ZN8mmCarSim6ReInitEPKc:
    xor eax, eax
    ret

// mmCarSim::Explode()
.globl _ZN8mmCarSim7ExplodeEv
.weak _ZN8mmCarSim7ExplodeEv
.type _ZN8mmCarSim7ExplodeEv, @function
_ZN8mmCarSim7ExplodeEv:
    xor eax, eax
    ret

// mmCarSim::PlayHorn()
.globl _ZN8mmCarSim8PlayHornEv
.weak _ZN8mmCarSim8PlayHornEv
.type _ZN8mmCarSim8PlayHornEv, @function
_ZN8mmCarSim8PlayHornEv:
    xor eax, eax
    ret

// mmCarSim::StopHorn()
.globl _ZN8mmCarSim8StopHornEv
.weak _ZN8mmCarSim8StopHornEv
.type _ZN8mmCarSim8StopHornEv, @function
_ZN8mmCarSim8StopHornEv:
    xor eax, eax
    ret

// mmCarSim::StopSiren()
.globl _ZN8mmCarSim9StopSirenEv
.weak _ZN8mmCarSim9StopSirenEv
.type _ZN8mmCarSim9StopSirenEv, @function
_ZN8mmCarSim9StopSirenEv:
    xor eax, eax
    ret

// mmCarSim::mmCarSim()
.globl _ZN8mmCarSimC1Ev
.weak _ZN8mmCarSimC1Ev
.type _ZN8mmCarSimC1Ev, @function
_ZN8mmCarSimC1Ev:
    xor eax, eax
    ret

// mmCarSim::~mmCarSim()
.globl _ZN8mmCarSimD1Ev
.weak _ZN8mmCarSimD1Ev
.type _ZN8mmCarSimD1Ev, @function
_ZN8mmCarSimD1Ev:
    xor eax, eax
    ret

// mmDamage::mmDamage()
.globl _ZN8mmDamageC1Ev
.weak _ZN8mmDamageC1Ev
.type _ZN8mmDamageC1Ev, @function
_ZN8mmDamageC1Ev:
    xor eax, eax
    ret

// mmDamage::~mmDamage()
.globl _ZN8mmDamageD1Ev
.weak _ZN8mmDamageD1Ev
.type _ZN8mmDamageD1Ev, @function
_ZN8mmDamageD1Ev:
    xor eax, eax
    ret

// mmHudMap::AddWidgets(Bank*)
.globl _ZN8mmHudMap10AddWidgetsEP4Bank
.weak _ZN8mmHudMap10AddWidgetsEP4Bank
.type _ZN8mmHudMap10AddWidgetsEP4Bank, @function
_ZN8mmHudMap10AddWidgetsEP4Bank:
    xor eax, eax
    ret

// mmHudMap::ToggleMapRes()
.globl _ZN8mmHudMap12ToggleMapResEv
.weak _ZN8mmHudMap12ToggleMapResEv
.type _ZN8mmHudMap12ToggleMapResEv, @function
_ZN8mmHudMap12ToggleMapResEv:
    xor eax, eax
    ret

// mmHudMap::DrawWaypoints()
.globl _ZN8mmHudMap13DrawWaypointsEv
.weak _ZN8mmHudMap13DrawWaypointsEv
.type _ZN8mmHudMap13DrawWaypointsEv, @function
_ZN8mmHudMap13DrawWaypointsEv:
    xor eax, eax
    ret

// mmHudMap::DrawCopsnRobbers()
.globl _ZN8mmHudMap16DrawCopsnRobbersEv
.weak _ZN8mmHudMap16DrawCopsnRobbersEv
.type _ZN8mmHudMap16DrawCopsnRobbersEv, @function
_ZN8mmHudMap16DrawCopsnRobbersEv:
    xor eax, eax
    ret

// mmHudMap::ToggleFullScreen()
.globl _ZN8mmHudMap16ToggleFullScreenEv
.weak _ZN8mmHudMap16ToggleFullScreenEv
.type _ZN8mmHudMap16ToggleFullScreenEv, @function
_ZN8mmHudMap16ToggleFullScreenEv:
    xor eax, eax
    ret

// mmHudMap::RegisterOpponents(OppIconInfo*, int)
.globl _ZN8mmHudMap17RegisterOpponentsEP11OppIconInfoi
.weak _ZN8mmHudMap17RegisterOpponentsEP11OppIconInfoi
.type _ZN8mmHudMap17RegisterOpponentsEP11OppIconInfoi, @function
_ZN8mmHudMap17RegisterOpponentsEP11OppIconInfoi:
    xor eax, eax
    ret

// mmHudMap::DrawOrientedBitmap(Matrix34*, agiBitmap*)
.globl _ZN8mmHudMap18DrawOrientedBitmapEP8Matrix34P9agiBitmap
.weak _ZN8mmHudMap18DrawOrientedBitmapEP8Matrix34P9agiBitmap
.type _ZN8mmHudMap18DrawOrientedBitmapEP8Matrix34P9agiBitmap, @function
_ZN8mmHudMap18DrawOrientedBitmapEP8Matrix34P9agiBitmap:
    xor eax, eax
    ret

// mmHudMap::Cycle()
.globl _ZN8mmHudMap5CycleEv
.weak _ZN8mmHudMap5CycleEv
.type _ZN8mmHudMap5CycleEv, @function
_ZN8mmHudMap5CycleEv:
    xor eax, eax
    ret

// mmHudMap::Reset()
.globl _ZN8mmHudMap5ResetEv
.weak _ZN8mmHudMap5ResetEv
.type _ZN8mmHudMap5ResetEv, @function
_ZN8mmHudMap5ResetEv:
    xor eax, eax
    ret

// mmHudMap::Update()
.globl _ZN8mmHudMap6UpdateEv
.weak _ZN8mmHudMap6UpdateEv
.type _ZN8mmHudMap6UpdateEv, @function
_ZN8mmHudMap6UpdateEv:
    xor eax, eax
    ret

// mmHudMap::SetMode(int)
.globl _ZN8mmHudMap7SetModeEi
.weak _ZN8mmHudMap7SetModeEi
.type _ZN8mmHudMap7SetModeEi, @function
_ZN8mmHudMap7SetModeEi:
    xor eax, eax
    ret

// mmHudMap::Activate()
.globl _ZN8mmHudMap8ActivateEv
.weak _ZN8mmHudMap8ActivateEv
.type _ZN8mmHudMap8ActivateEv, @function
_ZN8mmHudMap8ActivateEv:
    xor eax, eax
    ret

// mmHudMap::DrawCops()
.globl _ZN8mmHudMap8DrawCopsEv
.weak _ZN8mmHudMap8DrawCopsEv
.type _ZN8mmHudMap8DrawCopsEv, @function
_ZN8mmHudMap8DrawCopsEv:
    xor eax, eax
    ret

// mmHudMap::DrawMisc()
.globl _ZN8mmHudMap8DrawMiscEv
.weak _ZN8mmHudMap8DrawMiscEv
.type _ZN8mmHudMap8DrawMiscEv, @function
_ZN8mmHudMap8DrawMiscEv:
    xor eax, eax
    ret

// mmHudMap::GetClass()
.globl _ZN8mmHudMap8GetClassEv
.weak _ZN8mmHudMap8GetClassEv
.type _ZN8mmHudMap8GetClassEv, @function
_ZN8mmHudMap8GetClassEv:
    xor eax, eax
    ret

// mmLoader::SetIntroText(LocString*)
.globl _ZN8mmLoader12SetIntroTextEP9LocString
.weak _ZN8mmLoader12SetIntroTextEP9LocString
.type _ZN8mmLoader12SetIntroTextEP9LocString, @function
_ZN8mmLoader12SetIntroTextEP9LocString:
    xor eax, eax
    ret

// mmLoader::Reset()
.globl _ZN8mmLoader5ResetEv
.weak _ZN8mmLoader5ResetEv
.type _ZN8mmLoader5ResetEv, @function
_ZN8mmLoader5ResetEv:
    xor eax, eax
    ret

// mmLoader::EndTask(float)
.globl _ZN8mmLoader7EndTaskEf
.weak _ZN8mmLoader7EndTaskEf
.type _ZN8mmLoader7EndTaskEf, @function
_ZN8mmLoader7EndTaskEf:
    xor eax, eax
    ret

// mmLoader::BeginTask(LocString*, float)
.globl _ZN8mmLoader9BeginTaskEP9LocStringf
.weak _ZN8mmLoader9BeginTaskEP9LocStringf
.type _ZN8mmLoader9BeginTaskEP9LocStringf, @function
_ZN8mmLoader9BeginTaskEP9LocStringf:
    xor eax, eax
    ret

// mmLoader::mmLoader()
.globl _ZN8mmLoaderC1Ev
.weak _ZN8mmLoaderC1Ev
.type _ZN8mmLoaderC1Ev, @function
_ZN8mmLoaderC1Ev:
    xor eax, eax
    ret

// mmLoader::~mmLoader()
.globl _ZN8mmLoaderD1Ev
.weak _ZN8mmLoaderD1Ev
.type _ZN8mmLoaderD1Ev, @function
_ZN8mmLoaderD1Ev:
    xor eax, eax
    ret

// mmPlayer::SetWideFOV(bool)
.globl _ZN8mmPlayer10SetWideFOVEb
.weak _ZN8mmPlayer10SetWideFOVEb
.type _ZN8mmPlayer10SetWideFOVEb, @function
_ZN8mmPlayer10SetWideFOVEb:
    xor eax, eax
    ret

// mmPlayer::ToggleDash()
.globl _ZN8mmPlayer10ToggleDashEv
.weak _ZN8mmPlayer10ToggleDashEv
.type _ZN8mmPlayer10ToggleDashEv, @function
_ZN8mmPlayer10ToggleDashEv:
    xor eax, eax
    ret

// mmPlayer::EnableRegen(int)
.globl _ZN8mmPlayer11EnableRegenEi
.weak _ZN8mmPlayer11EnableRegenEi
.type _ZN8mmPlayer11EnableRegenEi, @function
_ZN8mmPlayer11EnableRegenEi:
    xor eax, eax
    ret

// mmPlayer::ResetDamage()
.globl _ZN8mmPlayer11ResetDamageEv
.weak _ZN8mmPlayer11ResetDamageEv
.type _ZN8mmPlayer11ResetDamageEv, @function
_ZN8mmPlayer11ResetDamageEv:
    xor eax, eax
    ret

// mmPlayer::IsMaxDamaged()
.globl _ZN8mmPlayer12IsMaxDamagedEv
.weak _ZN8mmPlayer12IsMaxDamagedEv
.type _ZN8mmPlayer12IsMaxDamagedEv, @function
_ZN8mmPlayer12IsMaxDamagedEv:
    xor eax, eax
    ret

// mmPlayer::SetPreRaceCam()
.globl _ZN8mmPlayer13SetPreRaceCamEv
.weak _ZN8mmPlayer13SetPreRaceCamEv
.type _ZN8mmPlayer13SetPreRaceCamEv, @function
_ZN8mmPlayer13SetPreRaceCamEv:
    xor eax, eax
    ret

// mmPlayer::ToggleWideFOV()
.globl _ZN8mmPlayer13ToggleWideFOVEv
.weak _ZN8mmPlayer13ToggleWideFOVEv
.type _ZN8mmPlayer13ToggleWideFOVEv, @function
_ZN8mmPlayer13ToggleWideFOVEv:
    xor eax, eax
    ret

// mmPlayer::SetCamInterest(asInertialCS*)
.globl _ZN8mmPlayer14SetCamInterestEP12asInertialCS
.weak _ZN8mmPlayer14SetCamInterestEP12asInertialCS
.type _ZN8mmPlayer14SetCamInterestEP12asInertialCS, @function
_ZN8mmPlayer14SetCamInterestEP12asInertialCS:
    xor eax, eax
    ret

// mmPlayer::ToggleExternalView()
.globl _ZN8mmPlayer18ToggleExternalViewEv
.weak _ZN8mmPlayer18ToggleExternalViewEv
.type _ZN8mmPlayer18ToggleExternalViewEv, @function
_ZN8mmPlayer18ToggleExternalViewEv:
    xor eax, eax
    ret

// mmPlayer::Init(char*, char*, mmGame*)
.globl _ZN8mmPlayer4InitEPcS0_P6mmGame
.weak _ZN8mmPlayer4InitEPcS0_P6mmGame
.type _ZN8mmPlayer4InitEPcS0_P6mmGame, @function
_ZN8mmPlayer4InitEPcS0_P6mmGame:
    xor eax, eax
    ret

// mmPlayer::IsPOV()
.globl _ZN8mmPlayer5IsPOVEv
.weak _ZN8mmPlayer5IsPOVEv
.type _ZN8mmPlayer5IsPOVEv, @function
_ZN8mmPlayer5IsPOVEv:
    xor eax, eax
    ret

// mmPlayer::ToggleCam()
.globl _ZN8mmPlayer9ToggleCamEv
.weak _ZN8mmPlayer9ToggleCamEv
.type _ZN8mmPlayer9ToggleCamEv, @function
_ZN8mmPlayer9ToggleCamEv:
    xor eax, eax
    ret

// mmSplash::Reset()
.globl _ZN8mmSplash5ResetEv
.weak _ZN8mmSplash5ResetEv
.type _ZN8mmSplash5ResetEv, @function
_ZN8mmSplash5ResetEv:
    xor eax, eax
    ret

// mmSplash::Activate(float)
.globl _ZN8mmSplash8ActivateEf
.weak _ZN8mmSplash8ActivateEf
.type _ZN8mmSplash8ActivateEf, @function
_ZN8mmSplash8ActivateEf:
    xor eax, eax
    ret

// mmViewCS::Reset()
.globl _ZN8mmViewCS5ResetEv
.weak _ZN8mmViewCS5ResetEv
.type _ZN8mmViewCS5ResetEv, @function
_ZN8mmViewCS5ResetEv:
    xor eax, eax
    ret

// mmViewCS::Update()
.globl _ZN8mmViewCS6UpdateEv
.weak _ZN8mmViewCS6UpdateEv
.type _ZN8mmViewCS6UpdateEv, @function
_ZN8mmViewCS6UpdateEv:
    xor eax, eax
    ret

// mmViewCS::GetClass()
.globl _ZN8mmViewCS8GetClassEv
.weak _ZN8mmViewCS8GetClassEv
.type _ZN8mmViewCS8GetClassEv, @function
_ZN8mmViewCS8GetClassEv:
    xor eax, eax
    ret

// uiNavBar::SetPrevPos(float, float)
.globl _ZN8uiNavBar10SetPrevPosEff
.weak _ZN8uiNavBar10SetPrevPosEff
.type _ZN8uiNavBar10SetPrevPosEff, @function
_ZN8uiNavBar10SetPrevPosEff:
    xor eax, eax
    ret

// uiNavBar::Update()
.globl _ZN8uiNavBar6UpdateEv
.weak _ZN8uiNavBar6UpdateEv
.type _ZN8uiNavBar6UpdateEv, @function
_ZN8uiNavBar6UpdateEv:
    xor eax, eax
    ret

// BaseCamCS::AddWidgets(Bank*)
.globl _ZN9BaseCamCS10AddWidgetsEP4Bank
.weak _ZN9BaseCamCS10AddWidgetsEP4Bank
.type _ZN9BaseCamCS10AddWidgetsEP4Bank, @function
_ZN9BaseCamCS10AddWidgetsEP4Bank:
    xor eax, eax
    ret

// BaseCamCS::ForceMatrixDelta(Vector3 const&)
.globl _ZN9BaseCamCS16ForceMatrixDeltaERK7Vector3
.weak _ZN9BaseCamCS16ForceMatrixDeltaERK7Vector3
.type _ZN9BaseCamCS16ForceMatrixDeltaERK7Vector3, @function
_ZN9BaseCamCS16ForceMatrixDeltaERK7Vector3:
    xor eax, eax
    ret

// BaseCamCS::GetClass()
.globl _ZN9BaseCamCS8GetClassEv
.weak _ZN9BaseCamCS8GetClassEv
.type _ZN9BaseCamCS8GetClassEv, @function
_ZN9BaseCamCS8GetClassEv:
    xor eax, eax
    ret

// BaseCamCS::AfterLoad()
.globl _ZN9BaseCamCS9AfterLoadEv
.weak _ZN9BaseCamCS9AfterLoadEv
.type _ZN9BaseCamCS9AfterLoadEv, @function
_ZN9BaseCamCS9AfterLoadEv:
    xor eax, eax
    ret

// Joint3Dof::BreakJoint()
.globl _ZN9Joint3Dof10BreakJointEv
.weak _ZN9Joint3Dof10BreakJointEv
.type _ZN9Joint3Dof10BreakJointEv, @function
_ZN9Joint3Dof10BreakJointEv:
    xor eax, eax
    ret

// Joint3Dof::UnbreakJoint()
.globl _ZN9Joint3Dof12UnbreakJointEv
.weak _ZN9Joint3Dof12UnbreakJointEv
.type _ZN9Joint3Dof12UnbreakJointEv, @function
_ZN9Joint3Dof12UnbreakJointEv:
    xor eax, eax
    ret

// Joint3Dof::InitJoint3Dof(asInertialCS*, Vector3 const&, asInertialCS*, Vector3 const&)
.globl _ZN9Joint3Dof13InitJoint3DofEP12asInertialCSRK7Vector3S1_S4_
.weak _ZN9Joint3Dof13InitJoint3DofEP12asInertialCSRK7Vector3S1_S4_
.type _ZN9Joint3Dof13InitJoint3DofEP12asInertialCSRK7Vector3S1_S4_, @function
_ZN9Joint3Dof13InitJoint3DofEP12asInertialCSRK7Vector3S1_S4_:
    xor eax, eax
    ret

// Joint3Dof::Reset()
.globl _ZN9Joint3Dof5ResetEv
.weak _ZN9Joint3Dof5ResetEv
.type _ZN9Joint3Dof5ResetEv, @function
_ZN9Joint3Dof5ResetEv:
    xor eax, eax
    ret

// PUControl::~PUControl()
.globl _ZN9PUControlD0Ev
.weak _ZN9PUControlD0Ev
.type _ZN9PUControlD0Ev, @function
_ZN9PUControlD0Ev:
    xor eax, eax
    ret

// PUResults::Reset()
.globl _ZN9PUResults5ResetEv
.weak _ZN9PUResults5ResetEv
.type _ZN9PUResults5ResetEv, @function
_ZN9PUResults5ResetEv:
    xor eax, eax
    ret

// PUResults::Init320()
.globl _ZN9PUResults7Init320Ev
.weak _ZN9PUResults7Init320Ev
.type _ZN9PUResults7Init320Ev, @function
_ZN9PUResults7Init320Ev:
    xor eax, eax
    ret

// PUResults::AddTitle(LocString*, LocString*)
.globl _ZN9PUResults8AddTitleEP9LocStringS1_
.weak _ZN9PUResults8AddTitleEP9LocStringS1_
.type _ZN9PUResults8AddTitleEP9LocStringS1_, @function
_ZN9PUResults8AddTitleEP9LocStringS1_:
    xor eax, eax
    ret

// UICWArray::Redraw()
.globl _ZN9UICWArray6RedrawEv
.weak _ZN9UICWArray6RedrawEv
.type _ZN9UICWArray6RedrawEv, @function
_ZN9UICWArray6RedrawEv:
    xor eax, eax
    ret

// WArray::~WArray()
.globl _ZN6WArrayD1Ev
.weak _ZN6WArrayD1Ev
.type _ZN6WArrayD1Ev, @function
_ZN6WArrayD1Ev:
    ret

.globl _ZN6WArrayD2Ev
.weak _ZN6WArrayD2Ev
.type _ZN6WArrayD2Ev, @function
_ZN6WArrayD2Ev:
    ret

// aiRailSet::SolveTurnType(aiPath*, aiPath*)
.globl _ZN9aiRailSet13SolveTurnTypeEP6aiPathS1_
.weak _ZN9aiRailSet13SolveTurnTypeEP6aiPathS1_
.type _ZN9aiRailSet13SolveTurnTypeEP6aiPathS1_, @function
_ZN9aiRailSet13SolveTurnTypeEP6aiPathS1_:
    xor eax, eax
    ret

// aiRailSet::CalcCopRailPosition(Vector3&, Vector3&, float, float)
.globl _ZN9aiRailSet19CalcCopRailPositionER7Vector3S1_ff
.weak _ZN9aiRailSet19CalcCopRailPositionER7Vector3S1_ff
.type _ZN9aiRailSet19CalcCopRailPositionER7Vector3S1_ff, @function
_ZN9aiRailSet19CalcCopRailPositionER7Vector3S1_ff:
    xor eax, eax
    ret

// aiRailSet::DrawTurn(float)
.globl _ZN9aiRailSet8DrawTurnEf
.weak _ZN9aiRailSet8DrawTurnEf
.type _ZN9aiRailSet8DrawTurnEf, @function
_ZN9aiRailSet8DrawTurnEf:
    xor eax, eax
    ret

// aiVehicle::Init(int)
.globl _ZN9aiVehicle4InitEi
.weak _ZN9aiVehicle4InitEi
.type _ZN9aiVehicle4InitEi, @function
_ZN9aiVehicle4InitEi:
    xor eax, eax
    ret

// aiVehicle::Reset()
.globl _ZN9aiVehicle5ResetEv
.weak _ZN9aiVehicle5ResetEv
.type _ZN9aiVehicle5ResetEv, @function
_ZN9aiVehicle5ResetEv:
    xor eax, eax
    ret

// aiVehicle::Update()
.globl _ZN9aiVehicle6UpdateEv
.weak _ZN9aiVehicle6UpdateEv
.type _ZN9aiVehicle6UpdateEv, @function
_ZN9aiVehicle6UpdateEv:
    xor eax, eax
    ret

// asNetwork::Deallocate()
.globl _ZN9asNetwork10DeallocateEv
.weak _ZN9asNetwork10DeallocateEv
.type _ZN9asNetwork10DeallocateEv, @function
_ZN9asNetwork10DeallocateEv:
    xor eax, eax
    ret

// asNetwork::CloseSession()
.globl _ZN9asNetwork12CloseSessionEv
.weak _ZN9asNetwork12CloseSessionEv
.type _ZN9asNetwork12CloseSessionEv, @function
_ZN9asNetwork12CloseSessionEv:
    xor eax, eax
    ret

// asNetwork::DestroyPlayer()
.globl _ZN9asNetwork13DestroyPlayerEv
.weak _ZN9asNetwork13DestroyPlayerEv
.type _ZN9asNetwork13DestroyPlayerEv, @function
_ZN9asNetwork13DestroyPlayerEv:
    xor eax, eax
    ret

// asNetwork::InitializeLobby(int, bool)
.globl _ZN9asNetwork15InitializeLobbyEib
.weak _ZN9asNetwork15InitializeLobbyEib
.type _ZN9asNetwork15InitializeLobbyEib, @function
_ZN9asNetwork15InitializeLobbyEib:
    xor eax, eax
    ret

// asNetwork::JoinLobbySession()
.globl _ZN9asNetwork16JoinLobbySessionEv
.weak _ZN9asNetwork16JoinLobbySessionEv
.type _ZN9asNetwork16JoinLobbySessionEv, @function
_ZN9asNetwork16JoinLobbySessionEv:
    xor eax, eax
    ret

// asNetwork::Send(unsigned long, void*, unsigned long, int)
.globl _ZN9asNetwork4SendEmPvmi
.weak _ZN9asNetwork4SendEmPvmi
.type _ZN9asNetwork4SendEmPvmi, @function
_ZN9asNetwork4SendEmPvmi:
    xor eax, eax
    ret

// asNetwork::Logout()
.globl _ZN9asNetwork6LogoutEv
.weak _ZN9asNetwork6LogoutEv
.type _ZN9asNetwork6LogoutEv, @function
_ZN9asNetwork6LogoutEv:
    xor eax, eax
    ret

// mmAnimMgr::AirlinerSwap()
.globl _ZN9mmAnimMgr12AirlinerSwapEv
.weak _ZN9mmAnimMgr12AirlinerSwapEv
.type _ZN9mmAnimMgr12AirlinerSwapEv, @function
_ZN9mmAnimMgr12AirlinerSwapEv:
    xor eax, eax
    ret

// mmAnimMgr::Init(char*, mmInstance*, mmInstance**, int)
.globl _ZN9mmAnimMgr4InitEPcP10mmInstancePS2_i
.weak _ZN9mmAnimMgr4InitEPcP10mmInstancePS2_i
.type _ZN9mmAnimMgr4InitEPcP10mmInstancePS2_i, @function
_ZN9mmAnimMgr4InitEPcP10mmInstancePS2_i:
    xor eax, eax
    ret

// mmAnimMgr::UFOSwap()
.globl _ZN9mmAnimMgr7UFOSwapEv
.weak _ZN9mmAnimMgr7UFOSwapEv
.type _ZN9mmAnimMgr7UFOSwapEv, @function
_ZN9mmAnimMgr7UFOSwapEv:
    xor eax, eax
    ret

// mmAnimMgr::mmAnimMgr()
.globl _ZN9mmAnimMgrC1Ev
.weak _ZN9mmAnimMgrC1Ev
.type _ZN9mmAnimMgrC1Ev, @function
_ZN9mmAnimMgrC1Ev:
    xor eax, eax
    ret

// mmAnimMgr::~mmAnimMgr()
.globl _ZN9mmAnimMgrD0Ev
.weak _ZN9mmAnimMgrD0Ev
.type _ZN9mmAnimMgrD0Ev, @function
_ZN9mmAnimMgrD0Ev:
    xor eax, eax
    ret

// mmMultiCR::UpdateBank()
.globl _ZN9mmMultiCR10UpdateBankEv
.weak _ZN9mmMultiCR10UpdateBankEv
.type _ZN9mmMultiCR10UpdateBankEv, @function
_ZN9mmMultiCR10UpdateBankEv:
    xor eax, eax
    ret

// mmMultiCR::UpdateGold()
.globl _ZN9mmMultiCR10UpdateGoldEv
.weak _ZN9mmMultiCR10UpdateGoldEv
.type _ZN9mmMultiCR10UpdateGoldEv, @function
_ZN9mmMultiCR10UpdateGoldEv:
    xor eax, eax
    ret

// mmMultiCR::FillResults()
.globl _ZN9mmMultiCR11FillResultsEv
.weak _ZN9mmMultiCR11FillResultsEv
.type _ZN9mmMultiCR11FillResultsEv, @function
_ZN9mmMultiCR11FillResultsEv:
    xor eax, eax
    ret

// mmMultiCR::UpdateLimit()
.globl _ZN9mmMultiCR11UpdateLimitEv
.weak _ZN9mmMultiCR11UpdateLimitEv
.type _ZN9mmMultiCR11UpdateLimitEv, @function
_ZN9mmMultiCR11UpdateLimitEv:
    xor eax, eax
    ret

// mmMultiCR::FondleCarMass(mmCar*, float)
.globl _ZN9mmMultiCR13FondleCarMassEP5mmCarf
.weak _ZN9mmMultiCR13FondleCarMassEP5mmCarf
.type _ZN9mmMultiCR13FondleCarMassEP5mmCarf, @function
_ZN9mmMultiCR13FondleCarMassEP5mmCarf:
    xor eax, eax
    ret

// mmMultiCR::UpdateHideout()
.globl _ZN9mmMultiCR13UpdateHideoutEv
.weak _ZN9mmMultiCR13UpdateHideoutEv
.type _ZN9mmMultiCR13UpdateHideoutEv, @function
_ZN9mmMultiCR13UpdateHideoutEv:
    xor eax, eax
    ret

// mmMultiCR::UpdateTimeWarning()
.globl _ZN9mmMultiCR17UpdateTimeWarningEv
.weak _ZN9mmMultiCR17UpdateTimeWarningEv
.type _ZN9mmMultiCR17UpdateTimeWarningEv, @function
_ZN9mmMultiCR17UpdateTimeWarningEv:
    xor eax, eax
    ret

// mmMultiCR::DropGold(Vector3, int)
.globl _ZN9mmMultiCR8DropGoldE7Vector3i
.weak _ZN9mmMultiCR8DropGoldE7Vector3i
.type _ZN9mmMultiCR8DropGoldE7Vector3i, @function
_ZN9mmMultiCR8DropGoldE7Vector3i:
    xor eax, eax
    ret

// mmMultiCR::UpdateHUD()
.globl _ZN9mmMultiCR9UpdateHUDEv
.weak _ZN9mmMultiCR9UpdateHUDEv
.type _ZN9mmMultiCR9UpdateHUDEv, @function
_ZN9mmMultiCR9UpdateHUDEv:
    xor eax, eax
    ret

// mmPolygon::PlotTriangle(int, int, int, mmBoundTemplate*, int)
.globl _ZN9mmPolygon12PlotTriangleEiiiP15mmBoundTemplatei
.weak _ZN9mmPolygon12PlotTriangleEiiiP15mmBoundTemplatei
.type _ZN9mmPolygon12PlotTriangleEiiiP15mmBoundTemplatei, @function
_ZN9mmPolygon12PlotTriangleEiiiP15mmBoundTemplatei:
    xor eax, eax
    ret

// mmTrailer::Deactivate()
.globl _ZN9mmTrailer10DeactivateEv
.weak _ZN9mmTrailer10DeactivateEv
.type _ZN9mmTrailer10DeactivateEv, @function
_ZN9mmTrailer10DeactivateEv:
    xor eax, eax
    ret

// mmTrailer::PostUpdate()
.globl _ZN9mmTrailer10PostUpdateEv
.weak _ZN9mmTrailer10PostUpdateEv
.type _ZN9mmTrailer10PostUpdateEv, @function
_ZN9mmTrailer10PostUpdateEv:
    xor eax, eax
    ret

// mmTrailer::SetHackedImpactParams()
.globl _ZN9mmTrailer21SetHackedImpactParamsEv
.weak _ZN9mmTrailer21SetHackedImpactParamsEv
.type _ZN9mmTrailer21SetHackedImpactParamsEv, @function
_ZN9mmTrailer21SetHackedImpactParamsEv:
    xor eax, eax
    ret

// mmTrailer::Init(char const*, mmCarSim*, Vector3)
.globl _ZN9mmTrailer4InitEPKcP8mmCarSim7Vector3
.weak _ZN9mmTrailer4InitEPKcP8mmCarSim7Vector3
.type _ZN9mmTrailer4InitEPKcP8mmCarSim7Vector3, @function
_ZN9mmTrailer4InitEPKcP8mmCarSim7Vector3:
    xor eax, eax
    ret

// mmTrailer::Reset()
.globl _ZN9mmTrailer5ResetEv
.weak _ZN9mmTrailer5ResetEv
.type _ZN9mmTrailer5ResetEv, @function
_ZN9mmTrailer5ResetEv:
    xor eax, eax
    ret

// mmTrailer::Activate()
.globl _ZN9mmTrailer8ActivateEv
.weak _ZN9mmTrailer8ActivateEv
.type _ZN9mmTrailer8ActivateEv, @function
_ZN9mmTrailer8ActivateEv:
    xor eax, eax
    ret

// mmVehInfo::Load(char*)
.globl _ZN9mmVehInfo4LoadEPc
.weak _ZN9mmVehInfo4LoadEPc
.type _ZN9mmVehInfo4LoadEPc, @function
_ZN9mmVehInfo4LoadEPc:
    xor eax, eax
    ret

// mmVehInfo::Print()
.globl _ZN9mmVehInfo5PrintEv
.weak _ZN9mmVehInfo5PrintEv
.type _ZN9mmVehInfo5PrintEv, @function
_ZN9mmVehInfo5PrintEv:
    xor eax, eax
    ret

// mmVehInfo::mmVehInfo()
.globl _ZN9mmVehInfoC1Ev
.weak _ZN9mmVehInfoC1Ev
.type _ZN9mmVehInfoC1Ev, @function
_ZN9mmVehInfoC1Ev:
    xor eax, eax
    ret

// sfPointer::Cull()
.globl _ZN9sfPointer4CullEv
.weak _ZN9sfPointer4CullEv
.type _ZN9sfPointer4CullEv, @function
_ZN9sfPointer4CullEv:
    xor eax, eax
    ret

// sfPointer::Update()
.globl _ZN9sfPointer6UpdateEv
.weak _ZN9sfPointer6UpdateEv
.type _ZN9sfPointer6UpdateEv, @function
_ZN9sfPointer6UpdateEv:
    xor eax, eax
    ret

// sfPointer::GetClass()
.globl _ZN9sfPointer8GetClassEv
.weak _ZN9sfPointer8GetClassEv
.type _ZN9sfPointer8GetClassEv, @function
_ZN9sfPointer8GetClassEv:
    xor eax, eax
    ret

// string::NumSubStrings() const
.globl _ZNK6string13NumSubStringsEv
.weak _ZNK6string13NumSubStringsEv
.type _ZNK6string13NumSubStringsEv, @function
_ZNK6string13NumSubStringsEv:
    xor eax, eax
    ret

// string::SubString(int) const
.globl _ZNK6string9SubStringEi
.weak _ZNK6string9SubStringEi
.type _ZNK6string9SubStringEi, @function
_ZNK6string9SubStringEi:
    xor eax, eax
    ret

// Vector2::InvMag() const
.globl _ZNK7Vector26InvMagEv
.weak _ZNK7Vector26InvMagEv
.type _ZNK7Vector26InvMagEv, @function
_ZNK7Vector26InvMagEv:
    xor eax, eax
    ret

// Vector3::Mag() const
.globl _ZNK7Vector33MagEv
.weak _ZNK7Vector33MagEv
.type _ZNK7Vector33MagEv, @function
_ZNK7Vector33MagEv:
    xor eax, eax
    ret

// Vector3::Dist(Vector3 const&) const
.globl _ZNK7Vector34DistERKS_
.weak _ZNK7Vector34DistERKS_
.type _ZNK7Vector34DistERKS_, @function
_ZNK7Vector34DistERKS_:
    xor eax, eax
    ret

// Vector3::InvMag() const
.globl _ZNK7Vector36InvMagEv
.weak _ZNK7Vector36InvMagEv
.type _ZNK7Vector36InvMagEv, @function
_ZNK7Vector36InvMagEv:
    xor eax, eax
    ret

// Matrix34::GetEulers() const
.globl _ZNK8Matrix349GetEulersEv
.weak _ZNK8Matrix349GetEulersEv
.type _ZNK8Matrix349GetEulersEv, @function
_ZNK8Matrix349GetEulersEv:
    xor eax, eax
    ret

.section .data.rel.ro, "aw", @progbits
.balign 8

// vtable for PUGraphics
.globl _ZTV10PUGraphics
.weak _ZTV10PUGraphics
_ZTV10PUGraphics:
    .quad 0

// vtable for PUMenuBase
.globl _ZTV10PUMenuBase
.weak _ZTV10PUMenuBase
_ZTV10PUMenuBase:
    .quad 0

// vtable for PointCamCS
.globl _ZTV10PointCamCS
.weak _ZTV10PointCamCS
_ZTV10PointCamCS:
    .quad 0

// vtable for PolarCamCS
.globl _ZTV10PolarCamCS
.weak _ZTV10PolarCamCS
_ZTV10PolarCamCS:
    .quad 0

// vtable for agiLighter
.globl _ZTV10agiLighter
.weak _ZTV10agiLighter
_ZTV10agiLighter:
    .quad 0

// vtable for mmCarModel
.globl _ZTV10mmCarModel
.weak _ZTV10mmCarModel
_ZTV10mmCarModel:
    .quad 0

// vtable for mmSpringFF
.globl _ZTV10mmSpringFF
.weak _ZTV10mmSpringFF
_ZTV10mmSpringFF:
    .quad 0

// vtable for agiSWTexLut
.globl _ZTV11agiSWTexLut
.weak _ZTV11agiSWTexLut
_ZTV11agiSWTexLut:
    .quad 0

// vtable for asBirthRule
.globl _ZTV11asBirthRule
.weak _ZTV11asBirthRule
_ZTV11asBirthRule:
    .quad 0

// vtable for asNetObject
.globl _ZTV11asNetObject
.weak _ZTV11asNetObject
_ZTV11asNetObject:
    .quad 0

// vtable for mmYInstance
.globl _ZTV11mmYInstance
.weak _ZTV11mmYInstance
_ZTV11mmYInstance:
    .quad 0

// vtable for asInertialCS
.globl _ZTV12asInertialCS
.weak _ZTV12asInertialCS
_ZTV12asInertialCS:
    .quad 0

// vtable for asOverSample
.globl _ZTV12asOverSample
.weak _ZTV12asOverSample
_ZTV12asOverSample:
    .quad 0

// vtable for mmFrictionFF
.globl _ZTV12mmFrictionFF
.weak _ZTV12mmFrictionFF
_ZTV12mmFrictionFF:
    .quad 0

// vtable for agiRGBLighter
.globl _ZTV13agiRGBLighter
.weak _ZTV13agiRGBLighter
_ZTV13agiRGBLighter:
    .quad 0

// vtable for aiVehicleData
.globl _ZTV13aiVehicleData
.weak _ZTV13aiVehicleData
_ZTV13aiVehicleData:
    .quad 0

// vtable for asMeshSetForm
.globl _ZTV13asMeshSetForm
.weak _ZTV13asMeshSetForm
_ZTV13asMeshSetForm:
    .quad 0

// vtable for PUAudioOptions
.globl _ZTV14PUAudioOptions
.weak _ZTV14PUAudioOptions
_ZTV14PUAudioOptions:
    .quad 0

// vtable for agiMonoLighter
.globl _ZTV14agiMonoLighter
.weak _ZTV14agiMonoLighter
_ZTV14agiMonoLighter:
    .quad 0

// vtable for mmAnimTrainCar
.globl _ZTV14mmAnimTrainCar
.weak _ZTV14mmAnimTrainCar
_ZTV14mmAnimTrainCar:
    .quad 0

// vtable for mmSingleCircuit
.globl _ZTV15mmSingleCircuit
.weak _ZTV15mmSingleCircuit
_ZTV15mmSingleCircuit:
    .quad 0

// vtable for mmStaticInstance
.globl _ZTV16mmStaticInstance
.weak _ZTV16mmStaticInstance
_ZTV16mmStaticInstance:
    .quad 0

// vtable for mmDofBangerInstance
.globl _ZTV19mmDofBangerInstance
.weak _ZTV19mmDofBangerInstance
_ZTV19mmDofBangerInstance:
    .quad 0

// vtable for mmCar
.globl _ZTV5mmCar
.weak _ZTV5mmCar
_ZTV5mmCar:
    .quad 0

// vtable for foobar
.globl _ZTV6foobar
.weak _ZTV6foobar
_ZTV6foobar:
    .quad 0

// vtable for AICamCS
.globl _ZTV7AICamCS
.weak _ZTV7AICamCS
_ZTV7AICamCS:
    .quad 0

// vtable for AudHead
.globl _ZTV7AudHead
.weak _ZTV7AudHead
_ZTV7AudHead:
    .quad 0

// vtable for AppCamCS
.globl _ZTV8AppCamCS
.weak _ZTV8AppCamCS
_ZTV8AppCamCS:
    .quad 0

// vtable for CarCamCS
.globl _ZTV8CarCamCS
.weak _ZTV8CarCamCS
_ZTV8CarCamCS:
    .quad 0

// vtable for PURoster
.globl _ZTV8PURoster
.weak _ZTV8PURoster
_ZTV8PURoster:
    .quad 0

// vtable for PovCamCS
.globl _ZTV8PovCamCS
.weak _ZTV8PovCamCS
_ZTV8PovCamCS:
    .quad 0

// vtable for PreCamCS
.globl _ZTV8PreCamCS
.weak _ZTV8PreCamCS
_ZTV8PreCamCS:
    .quad 0

// vtable for asViewCS
.globl _ZTV8asViewCS
.weak _ZTV8asViewCS
_ZTV8asViewCS:
    .quad 0

// vtable for mmPlayer
.globl _ZTV8mmPlayer
.weak _ZTV8mmPlayer
_ZTV8mmPlayer:
    .quad 0

// vtable for PostCamCS
.globl _ZTV9PostCamCS
.weak _ZTV9PostCamCS
_ZTV9PostCamCS:
    .quad 0
